(dp1
Vrequestaddr
p2
I0
sVinformpricerange
p3
I1
sVthankyou
p4
I0
sVrequestarea
p5
I0
sVnegate
p6
I0
sVrequestpricerange
p7
I0
sVreqmore
p8
I0
sVinformname
p9
I4
sVdenyfood
p10
I1
sVconfirmpricerange
p11
I1
sVrequestsignature
p12
I0
sVrequestphone
p13
I0
sVinformarea
p14
I1
sVreqalts
p15
I0
sVinformfood
p16
I2
sVdenyname
p17
I3
sVrepeat
p18
I0
sVconfirmarea
p19
I1
sVrequestfood
p20
I0
sVinformthis
p21
I1
sVrequestname
p22
I0
sVrestart
p23
I0
sVbye
p24
I0
sVconfirmfood
p25
I2
sVack
p26
I0
sVaffirm
p27
I0
sVhello
p28
I0
sVrequestpostcode
p29
I0
s.