((dp1
Vall
p2
I5
sVcode
p3
I6
sVchinese
p4
I7
sVrequestarea
p5
I8
sVasian
p6
I9
sVgo
p7
I52
sVbarbecue
p8
I11
sVhate
p9
I12
sVsystem
p10
I13
sVturkish
p11
I14
sVts
p12
I15
sVto
p13
I16
sVfinally
p14
I17
sVdoes
p15
I548
sVven
p16
I19
sVsorry
p17
I20
sVworth
p18
I21
sVappleton
p19
I22
sVtown
p20
I23
sVbreathing
p21
I24
sVkitalian
p22
I25
sVvery
p23
I26
sVmediteranian
p24
I27
sVrequestfood
p25
I28
sVwiscon
p26
I395
sVchoice
p27
I29
sVtelephone
p28
I488
sVevery
p29
I30
sVdecide
p30
I31
sVgot
p31
I32
sVpizzeria
p32
I33
sVcanapes
p33
I34
sVcool
p34
I35
sVsignaporian
p35
I36
sVfoo
p36
I550
sVscandinavia
p37
I38
sVdid
p38
I39
sVlist
p39
I41
sVumh
p40
I551
sVtry
p41
I43
sVp
I44
sVsteakhouse
p42
I45
sVmediteranean
p43
I507
sVsays
p44
I47
sVaddrss
p45
I48
sVsigh
p46
I49
sVmediterranean
p47
I50
sVitailian
p48
I51
sVdish
p49
I10
sVcost
p50
I53
sVthare
p51
I446
sVkatalian
p52
I55
sVwhat
p53
I57
sVreqmore
p54
I58
sVchrist
p55
I59
sVindian
p56
I60
sVrequestphone
p57
I61
sVinformarea
p58
I62
sVreqalts
p59
I63
sVnew
p60
I64
sVever
p61
I65
sS'<END>'
p62
I0
sVeuorpean
p63
I66
sVfrench
p64
I67
sVwater
p65
I68
sVlet
p66
I69
sVfree
p67
I236
sVaddress
p68
I71
sVchange
p69
I72
sVwait
p70
I73
sVboy
p71
I74
sVgreat
p72
I75
sVvegetarian
p73
I76
sVvietnamese
p74
I77
sVsurvey
p75
I79
sVusually
p76
I80
sVoptions
p77
I81
sVthats
p78
I82
sVgolden
p79
I83
sVgastro
p80
I84
sVbesides
p81
I239
sVrestauarant
p82
I86
sVaustria
p83
I87
sVtailand
p84
I88
sVwelch
p85
I89
sVyourself
p86
I262
sVfrom
p87
I90
sVtakes
p88
I91
sVwould
p89
I92
sVfen
p90
I93
sVchi
p91
I94
sVindians
p92
I95
sVtwo
p93
I96
sVnext
p94
I97
sVcanape
p95
I454
sVmusic
p96
I98
sVwondering
p97
I99
sVrecommend
p98
I100
sVaustralian
p99
I101
sVtype
p100
I102
sVtell
p101
I103
sVmore
p102
I104
sVprezzo
p103
I105
sVportugese
p104
I106
sVholy
p105
I107
sVital
p106
I108
sVooh
p107
I109
sVinformpricerange
p108
I110
sVdowntown
p109
I111
sVphone
p110
I112
sVtrain
p111
I113
sVderately
p112
I114
sVexcellent
p113
I115
sVcentral
p114
I563
sVme
p115
I117
sVportugeuse
p116
I118
sVnone
p117
I119
sVspensive
p118
I120
sVf
I122
sVthis
p119
I123
sVconfirmfood
p120
I566
sVsucks
p121
I125
sVpolynesia
p122
I126
sVearatrain
p123
I127
sVvenusian
p124
I128
sVanywhere
p125
I129
sVcan
p126
I130
sVmy
p127
I131
sVcarraibean
p128
I132
sVearatree
p129
I133
sVgive
p130
I134
sVawesome
p131
I135
sVindia
p132
I136
sVfuck
p133
I137
sVhigh
p134
I138
sVfoods
p135
I139
sVaddre
p136
I356
sVsomething
p137
I141
sVwant
p138
I142
sVcantonese
p139
I143
sVswedish
p140
I144
sVneeds
p141
I145
sVgoodb
p142
I571
sVhow
p143
I183
sVmoron
p144
I198
sVplace
p145
I333
sVsil
p146
I209
sVmeditteranian
p147
I151
sVokay
p148
I152
sVmay
p149
I153
sVcancun
p150
I154
sVthankyou
p151
I155
sVwrong
p152
I156
sVpolynesian
p153
I157
sVsuch
p154
I158
sVsuck
p155
I159
sVtypes
p156
I160
sVa
I161
sVwanna
p157
I574
sVgreek
p158
I163
sVsh
p159
I313
sVso
p160
I165
sVbaskey
p161
I166
sVgoodbye
p162
I167
sVafrican
p163
I168
sVtalk
p164
I170
sVcute
p165
I171
sVserving
p166
I172
sVmexican
p167
I173
sVhelp
p168
I174
sVover
p169
I176
sVcrosstalk
p170
I177
sVtv_noise
p171
I178
sVaustrian
p172
I179
sVits
p173
I180
sVmoderat
p174
I622
sVperfect
p175
I181
sS'<START>'
p176
I1
sVthank
p177
I182
sVlocated
p178
I147
sVsomewhere
p179
I184
sVbloomsbury
p180
I185
sVparts
p181
I468
sVmail
p182
I187
sVbout
p183
I188
sVlabonese
p184
I189
sVmight
p185
I190
sVly
p186
I191
sVthen
p187
I192
sVgood
p188
I193
sVya
p189
I194
sVye
p190
I195
sVadra
p191
I197
sVminuet
p192
I148
sVthey
p193
I199
sVinformfood
p194
I149
sVnot
p195
I200
sVeuropene
p196
I201
sVnow
p197
I202
sVday
p198
I203
sVnor
p199
I204
sVname
p200
I205
sVtran
p201
I206
sVharbor
p202
I207
sVdontcare
p203
I469
sVunintelligent
p204
I456
sVpizza
p205
I150
sVside
p206
I211
sVluck
p207
I212
sVsignapore
p208
I213
sVvenue
p209
I214
sVfish
p210
I215
sVea
p211
I216
sVyeah
p212
I217
sVpersian
p213
I218
sVstatic
p214
I219
sVsounds
p215
I220
sVspecial
p216
I221
sVout
p217
I210
sVgod
p218
I224
sVgonville
p219
I225
sVlooking
p220
I226
sVre
p221
I227
sVnoice
p222
I228
sVoriental
p223
I229
sVsurprise
p224
I230
sVdarling
p225
I231
sVcorrect
p226
I232
sVshows
p227
I233
sVbistro
p228
I234
sVwisconsin
p229
I235
sS'<NULL>'
p230
I4
sVpub
p231
I70
sVpreviews
p232
I237
sVplease
p233
I389
sVyork
p234
I238
sVplea
p235
I85
sVori
p236
I240
sVchineese
p237
I241
sVcough
p238
I242
sVbask
p239
I243
sVcare
p240
I244
sVcanope
p241
I443
sVviet
p242
I374
sVcould
p243
I246
sVmodereate
p244
I247
sVbritish
p245
I248
sVthing
p246
I249
sVamerican
p247
I250
sVafternoon
p248
I573
sVturk
p249
I251
sVsignature
p250
I252
sVthink
p251
I253
sVsouth
p252
I254
sVfirst
p253
I255
sVunintellgible
p254
I256
sVeirtrean
p255
I257
sVdont
p256
I258
sVknocking
p257
I259
sVnumber
p258
I260
sVfancy
p259
I261
sVjesus
p260
I56
sVdone
p261
I263
sVfast
p262
I591
sVanother
p263
I265
sVspanish
p264
I266
sVring
p265
I267
sVser
p266
I377
sViam
p267
I269
sVcity
p268
I270
sVlittle
p269
I271
sVffood
p270
I272
sVmoderately
p271
I273
sVtow
p272
I274
sVleast
p273
I275
sVanyone
p274
I276
sVtheir
p275
I277
sVreally
p276
I654
sVdanish
p277
I280
sVoption
p278
I281
sVthat
p279
I282
sVditton
p280
I283
sVbrazilian
p281
I595
sVserve
p282
I284
sVjapanese
p283
I285
sVhut
p284
I286
sVpart
p285
I287
sVeritrean
p286
I288
sVtuscan
p287
I289
sVthai
p288
I290
sVbelieve
p289
I291
sVthan
p290
I292
sVserv
p291
I293
sVkind
p292
I294
sVb
I295
sVscandinavian
p293
I296
sVmatter
p294
I297
sVworthless
p295
I556
sVexpe
p296
I299
sVand
p297
I300
sVconfirmarea
p298
I515
sVran
p299
I302
sVmodern
p300
I303
sVpri
p301
I304
sVcrossover
p302
I305
sVtalking
p303
I306
sVhalal
p304
I307
sVhave
p305
I308
sVneed
p306
I309
sVromania
p307
I310
sVany
p308
I311
sVmia
p309
I312
sVother
p310
I649
sVeuropone
p311
I164
sVtake
p312
I314
sVkorean
p313
I315
sVsure
p314
I316
sVwha
p315
I317
sVcentre
p316
I318
sVhuh
p317
I319
sVprice
p318
I320
sVwho
p319
I321
sVrestaurnt
p320
I322
sVregular
p321
I324
sVkay
p322
I325
sVclass
p323
I326
sVcuban
p324
I327
sVscandin
p325
I328
sVrequestpostcode
p326
I606
sVseafood
p327
I330
sVko
p328
I331
sVtraditional
p329
I332
sVmedetanian
p330
I334
sVscotch
p331
I335
sV7:30
p332
I336
sVselection
p333
I337
sVshow
p334
I338
sVgerman
p335
I339
sVlcoated
p336
I340
sVcheap
p337
I341
sVmoroccan
p338
I342
sVpostcode
p339
I343
sVsingaporean
p340
I344
sVfine
p341
I345
sVfind
p342
I346
sVone
p343
I347
sVchiquito
p344
I348
sVromanian
p345
I349
sVshould
p346
I350
sVonly
p347
I351
sVrerestaurant
p348
I352
sVrice
p349
I353
sVmeant
p350
I354
sVger
p351
I355
sVhis
p352
I140
sVhungarian
p353
I357
sVget
p354
I358
sVcatalin
p355
I359
sVstop
p356
I360
sVda
p357
I361
sVarotrian
p358
I362
sVones
p359
I363
sVinternational
p360
I364
sVhalo
p361
I510
sVrestart
p362
I365
sVareas
p363
I366
sVbat
p364
I367
sVbar
p365
I368
sVscandanavian
p366
I369
sVmalaysian
p367
I370
sVcalling
p368
I371
sVbad
p369
I372
sVsteak
p370
I373
sVwhere
p371
I245
sVrestaurants
p372
I375
sVart
p373
I376
sVbart
p374
I268
sVtaiwanese
p375
I378
sVsee
p376
I379
sVcollege
p377
I381
sVare
p378
I382
sVsea
p379
I383
sValternative
p380
I499
sVrequestpricerange
p381
I385
sVvenetian
p382
I619
sVsaid
p383
I387
sVwelsh
p384
I473
sVhas
p385
I511
sVmalyasian
p386
I380
sVmodreately
p387
I390
sVwok
p388
I391
sVprobably
p389
I393
sVtur
p390
I402
sVbarbeque
p391
I196
sVavailable
p392
I396
sVwe
p393
I397
sVkorea
p394
I398
sVdo
p395
I399
sVmissing
p396
I400
sVhutt
p397
I401
sVairatarin
p398
I394
sVbristish
p399
I403
sVnosie
p400
I404
sVgasper
p401
I405
sVcow
p402
I406
sVrestaurant
p403
I407
sVla
p404
I408
sVkosher
p405
I409
sVs
I410
sVcanopy
p406
I411
sVwhole
p407
I412
sVelses
p408
I413
sVspani
p409
I414
sVvenues
p410
I415
sVlaugh
p411
I416
sVbasque
p412
I417
sVty
p413
I418
sVele
p414
I419
sVexpensive
p415
I420
sVturkey
p416
I421
sVunusual
p417
I40
sVinformname
p418
I423
sVwest
p419
I424
sVmodertley
p420
I425
sVbreath
p421
I426
sVmuch
p422
I427
sVdamn
p423
I428
sVseouls
p424
I429
sVah
p425
I430
sVph
p426
I431
sS'<YES>'
p427
I434
sVvinci
p428
I435
sVmind
p429
I436
sVelse
p430
I437
sVrequestname
p431
I438
sVchild
p432
I439
sVprices
p433
I440
sVlebanese
p434
I441
sVbye
p435
I442
sVlook
p436
I301
sVaffirm
p437
I444
sVopean
p438
I445
sVair
p439
I54
sVeur
p440
I447
sVk
I448
sVtheres
p441
I449
sVchanged
p442
I450
sVthatll
p443
I451
sVairitran
p444
I452
sVcana
p445
I453
sVpark
p446
I169
sVis
p447
I455
sVit
p448
I392
sVcant
p449
I457
sVim
p450
I458
sVin
p451
I459
sVid
p452
I460
sVif
p453
I461
sVdifferent
p454
I462
sVturkiesh
p455
I463
sVcross
p456
I464
sVdenyfood
p457
I465
sVbeside
p458
I466
sVfood
p459
I467
sVrequestsignature
p460
I186
sVpan
p461
I208
sVeuropean
p462
I470
sVecuadorean
p463
I471
sVsingapore
p464
I472
sVpromo
p465
I121
sVhang
p466
I474
sVmoment
p467
I475
sVafghan
p468
I476
sVwheres
p469
I477
sVeuro
p470
I478
sVostro
p471
I479
sVmoder
p472
I480
sVcenter
p473
I481
sVshitty
p474
I517
sVi
I483
sVnymber
p475
I484
sVunitelligible
p476
I485
sVwell
p477
I486
sVenglish
p478
I487
sVswiss
p479
I323
sVthe
p480
I489
sVtha
p481
I490
sVrestuarant
p482
I491
sVjust
p483
I492
sVrequestaddr
p484
I493
sVyea
p485
I494
sVrest
p486
I495
sVmistakes
p487
I496
sVthanks
p488
I497
sVpolish
p489
I498
sVyes
p490
I384
sVinaudible
p491
I500
sVprince
p492
I501
sVblow
p493
I502
sVcut
p494
I503
sVeurop
p495
I504
sVgastropub
p496
I505
sVnubmer
p497
I506
sVconfirmpricerange
p498
I279
sVlets
p499
I508
sVcherries
p500
I509
sVlocation
p501
I433
sVeast
p502
I175
sVadress
p503
I512
sVindonesian
p504
I513
sVcaius
p505
I514
sVvanessa
p506
I223
sVsignaporean
p507
I516
sVcatalan
p508
I482
sVfusion
p509
I518
sVknow
p510
I519
sVbelgium
p511
I520
sVworld
p512
I521
sVmargherita
p513
I522
sVdeosnt
p514
I523
sVnevermind
p515
I524
sVlike
p516
I525
sVpreference
p517
I526
sVt
I527
sVserved
p518
I528
sVitalian
p519
I529
sVrestauran
p520
I530
sVright
p521
I531
sVold
p522
I532
sVmargheritas
p523
I533
sVscottish
p524
I534
sVsome
p525
I535
sVsearching
p526
I536
sVserves
p527
I537
sVdear
p528
I538
sS'<NO>'
p529
I539
sVcaribbean
p530
I540
sVvegitarian
p531
I541
sVres
p532
I665
sVthough
p533
I542
sVrestaruant
p534
I543
sVmedterranean
p535
I544
sVcreative
p536
I545
sVcannabis
p537
I546
sVese
p538
I547
sVtalian
p539
I18
sVeartrain
p540
I549
sVmoderate
p541
I37
sVchristmas
p542
I42
sVlaughing
p543
I552
sVbe
p544
I553
sVnoise
p545
I554
sVchikkis
p546
I555
sVarts
p547
I422
sVinformthis
p548
I557
sVthailand
p549
I558
sVpost
p550
I559
sVby
p551
I560
sVon
p552
I561
sVabout
p553
I562
sVok
p554
I116
sVzip
p555
I564
sVanything
p556
I565
sVoh
p557
I124
sVack
p558
I567
sVof
p559
I568
sVo
I570
sVrange
p560
I146
sVcarrier
p561
I572
sVvietna
p562
I298
sVcurry
p563
I162
sVor
p564
I575
sVcambridge
p565
I576
sVwhats
p566
I577
sVendonesian
p567
I578
sVportuguese
p568
I579
sVdown
p569
I580
sVdoesnt
p570
I581
sVaustralasian
p571
I633
sVnegate
p572
I582
sVnandos
p573
I632
sVyour
p574
I583
sVcorsica
p575
I584
sVcata
p576
I585
sVpostal
p577
I586
sVarea
p578
I587
sVthere
p579
I588
sVsock
p580
I589
sVloo
p581
I590
sVlong
p582
I264
sVchinses
p583
I592
sVstart
p584
I593
sVinner
p585
I594
sVhouse
p586
I78
sVjamcian
p587
I596
sVwas
p588
I597
sVhindi
p589
I598
sVadddress
p590
I599
sVmedium
p591
I600
sVnorth
p592
I601
sVcatalen
p593
I602
sVfora
p594
I603
sVbut
p595
I604
sVback
p596
I605
sVhk
p597
I329
sVhi
p598
I607
sVhm
p599
I608
sVrussian
p600
I609
sVtrying
p601
I610
sVwith
p602
I611
sVeat
p603
I612
sVhe
p604
I613
sVdenyname
p605
I614
sVrestaraunt
p606
I615
sVfdod
p607
I616
sVup
p608
I617
sVsells
p609
I618
sVum
p610
I386
sVun
p611
I620
sVjamaican
p612
I621
sVuh
p613
I46
sVbelgian
p614
I623
sVexpen
p615
I624
sVresataurant
p616
I625
sVirish
p617
I626
sVmoroccon
p618
I627
sVad
p619
I628
sVtaquita
p620
I629
sVaf
p621
I630
sVint
p622
I631
sVsweedish
p623
I388
sVam
p624
I569
sVan
p625
I634
sVduration
p626
I635
sVas
p627
I636
sVat
p628
I637
sVaw
p629
I638
sVcantonates
p630
I639
sVshit
p631
I640
sVcontinental
p632
I641
sVagain
p633
I642
sVspice
p634
I643
sVunintelligible
p635
I644
sVus
p636
I645
sVno
p637
I646
sVpeace
p638
I647
sVne
p639
I648
sVvenison
p640
I432
sVbaskaye
p641
I650
sVtest
p642
I651
sVworl
p643
I652
sVyou
p644
I653
sVer
p645
I222
sVearetree
p646
I655
sVrepeat
p647
I656
sVcatalanian
p648
I657
sVwelcome
p649
I658
sVm
I659
sVincludes
p650
I660
sVpriced
p651
I661
sVnumeber
p652
I662
sVfor
p653
I663
sVvietnam
p654
I664
sVtime
p655
I278
sValright
p656
I666
sVhello
p657
I667
sVothers
p658
I668
s(dp659
I0
g62
sI1
g176
sI2
g427
sI3
g529
sI4
g230
sI5
g2
sI6
g3
sI7
g4
sI8
g5
sI9
g6
sI10
g49
sI11
g8
sI12
g9
sI13
g10
sI14
g11
sI15
g12
sI16
g13
sI17
g14
sI18
g539
sI19
g16
sI20
g17
sI21
g18
sI22
g19
sI23
g20
sI24
g21
sI25
g22
sI26
g23
sI27
g24
sI28
g25
sI29
g27
sI30
g29
sI31
g30
sI32
g31
sI33
g32
sI34
g33
sI35
g34
sI36
g35
sI37
g541
sI38
g37
sI39
g38
sI40
g417
sI41
g39
sI42
g542
sI43
g41
sI44
Vp
sI45
g42
sI46
g613
sI47
g44
sI48
g45
sI49
g46
sI50
g47
sI51
g48
sI52
g7
sI53
g50
sI54
g439
sI55
g52
sI56
g260
sI57
g53
sI58
g54
sI59
g55
sI60
g56
sI61
g57
sI62
g58
sI63
g59
sI64
g60
sI65
g61
sI66
g63
sI67
g64
sI68
g65
sI69
g66
sI70
g231
sI71
g68
sI72
g69
sI73
g70
sI74
g71
sI75
g72
sI76
g73
sI77
g74
sI78
g586
sI79
g75
sI80
g76
sI81
g77
sI82
g78
sI83
g79
sI84
g80
sI85
g235
sI86
g82
sI87
g83
sI88
g84
sI89
g85
sI90
g87
sI91
g88
sI92
g89
sI93
g90
sI94
g91
sI95
g92
sI96
g93
sI97
g94
sI98
g96
sI99
g97
sI100
g98
sI101
g99
sI102
g100
sI103
g101
sI104
g102
sI105
g103
sI106
g104
sI107
g105
sI108
g106
sI109
g107
sI110
g108
sI111
g109
sI112
g110
sI113
g111
sI114
g112
sI115
g113
sI116
g554
sI117
g115
sI118
g116
sI119
g117
sI120
g118
sI121
g465
sI122
Vf
sI123
g119
sI124
g557
sI125
g121
sI126
g122
sI127
g123
sI128
g124
sI129
g125
sI130
g126
sI131
g127
sI132
g128
sI133
g129
sI134
g130
sI135
g131
sI136
g132
sI137
g133
sI138
g134
sI139
g135
sI140
g352
sI141
g137
sI142
g138
sI143
g139
sI144
g140
sI145
g141
sI146
g560
sI147
g178
sI148
g192
sI149
g194
sI150
g205
sI151
g147
sI152
g148
sI153
g149
sI154
g150
sI155
g151
sI156
g152
sI157
g153
sI158
g154
sI159
g155
sI160
g156
sI161
Va
sI162
g563
sI163
g158
sI164
g311
sI165
g160
sI166
g161
sI167
g162
sI168
g163
sI169
g446
sI170
g164
sI171
g165
sI172
g166
sI173
g167
sI174
g168
sI175
g502
sI176
g169
sI177
g170
sI178
g171
sI179
g172
sI180
g173
sI181
g175
sI182
g177
sI183
g143
sI184
g179
sI185
g180
sI186
g460
sI187
g182
sI188
g183
sI189
g184
sI190
g185
sI191
g186
sI192
g187
sI193
g188
sI194
g189
sI195
g190
sI196
g391
sI197
g191
sI198
g144
sI199
g193
sI200
g195
sI201
g196
sI202
g197
sI203
g198
sI204
g199
sI205
g200
sI206
g201
sI207
g202
sI208
g461
sI209
g146
sI210
g217
sI211
g206
sI212
g207
sI213
g208
sI214
g209
sI215
g210
sI216
g211
sI217
g212
sI218
g213
sI219
g214
sI220
g215
sI221
g216
sI222
g645
sI223
g506
sI224
g218
sI225
g219
sI226
g220
sI227
g221
sI228
g222
sI229
g223
sI230
g224
sI231
g225
sI232
g226
sI233
g227
sI234
g228
sI235
g229
sI236
g67
sI237
g232
sI238
g234
sI239
g81
sI240
g236
sI241
g237
sI242
g238
sI243
g239
sI244
g240
sI245
g371
sI246
g243
sI247
g244
sI248
g245
sI249
g246
sI250
g247
sI251
g249
sI252
g250
sI253
g251
sI254
g252
sI255
g253
sI256
g254
sI257
g255
sI258
g256
sI259
g257
sI260
g258
sI261
g259
sI262
g86
sI263
g261
sI264
g582
sI265
g263
sI266
g264
sI267
g265
sI268
g374
sI269
g267
sI270
g268
sI271
g269
sI272
g270
sI273
g271
sI274
g272
sI275
g273
sI276
g274
sI277
g275
sI278
g655
sI279
g498
sI280
g277
sI281
g278
sI282
g279
sI283
g280
sI284
g282
sI285
g283
sI286
g284
sI287
g285
sI288
g286
sI289
g287
sI290
g288
sI291
g289
sI292
g290
sI293
g291
sI294
g292
sI295
Vb
sI296
g293
sI297
g294
sI298
g562
sI299
g296
sI300
g297
sI301
g436
sI302
g299
sI303
g300
sI304
g301
sI305
g302
sI306
g303
sI307
g304
sI308
g305
sI309
g306
sI310
g307
sI311
g308
sI312
g309
sI313
g159
sI314
g312
sI315
g313
sI316
g314
sI317
g315
sI318
g316
sI319
g317
sI320
g318
sI321
g319
sI322
g320
sI323
g479
sI324
g321
sI325
g322
sI326
g323
sI327
g324
sI328
g325
sI329
g597
sI330
g327
sI331
g328
sI332
g329
sI333
g145
sI334
g330
sI335
g331
sI336
g332
sI337
g333
sI338
g334
sI339
g335
sI340
g336
sI341
g337
sI342
g338
sI343
g339
sI344
g340
sI345
g341
sI346
g342
sI347
g343
sI348
g344
sI349
g345
sI350
g346
sI351
g347
sI352
g348
sI353
g349
sI354
g350
sI355
g351
sI356
g136
sI357
g353
sI358
g354
sI359
g355
sI360
g356
sI361
g357
sI362
g358
sI363
g359
sI364
g360
sI365
g362
sI366
g363
sI367
g364
sI368
g365
sI369
g366
sI370
g367
sI371
g368
sI372
g369
sI373
g370
sI374
g242
sI375
g372
sI376
g373
sI377
g266
sI378
g375
sI379
g376
sI380
g386
sI381
g377
sI382
g378
sI383
g379
sI384
g490
sI385
g381
sI386
g610
sI387
g383
sI388
g623
sI389
g233
sI390
g387
sI391
g388
sI392
g448
sI393
g389
sI394
g398
sI395
g26
sI396
g392
sI397
g393
sI398
g394
sI399
g395
sI400
g396
sI401
g397
sI402
g390
sI403
g399
sI404
g400
sI405
g401
sI406
g402
sI407
g403
sI408
g404
sI409
g405
sI410
Vs
sI411
g406
sI412
g407
sI413
g408
sI414
g409
sI415
g410
sI416
g411
sI417
g412
sI418
g413
sI419
g414
sI420
g415
sI421
g416
sI422
g547
sI423
g418
sI424
g419
sI425
g420
sI426
g421
sI427
g422
sI428
g423
sI429
g424
sI430
g425
sI431
g426
sI432
g640
sI433
g501
sI434
S'<YES>'
p660
sI435
g428
sI436
g429
sI437
g430
sI438
g431
sI439
g432
sI440
g433
sI441
g434
sI442
g435
sI443
g241
sI444
g437
sI445
g438
sI446
g51
sI447
g440
sI448
Vk
sI449
g441
sI450
g442
sI451
g443
sI452
g444
sI453
g445
sI454
g95
sI455
g447
sI456
g204
sI457
g449
sI458
g450
sI459
g451
sI460
g452
sI461
g453
sI462
g454
sI463
g455
sI464
g456
sI465
g457
sI466
g458
sI467
g459
sI468
g181
sI469
g203
sI470
g462
sI471
g463
sI472
g464
sI473
g384
sI474
g466
sI475
g467
sI476
g468
sI477
g469
sI478
g470
sI479
g471
sI480
g472
sI481
g473
sI482
g508
sI483
Vi
sI484
g475
sI485
g476
sI486
g477
sI487
g478
sI488
g28
sI489
g480
sI490
g481
sI491
g482
sI492
g483
sI493
g484
sI494
g485
sI495
g486
sI496
g487
sI497
g488
sI498
g489
sI499
g380
sI500
g491
sI501
g492
sI502
g493
sI503
g494
sI504
g495
sI505
g496
sI506
g497
sI507
g43
sI508
g499
sI509
g500
sI510
g361
sI511
g385
sI512
g503
sI513
g504
sI514
g505
sI515
g298
sI516
g507
sI517
g474
sI518
g509
sI519
g510
sI520
g511
sI521
g512
sI522
g513
sI523
g514
sI524
g515
sI525
g516
sI526
g517
sI527
Vt
sI528
g518
sI529
g519
sI530
g520
sI531
g521
sI532
g522
sI533
g523
sI534
g524
sI535
g525
sI536
g526
sI537
g527
sI538
g528
sI539
S'<NO>'
p661
sI540
g530
sI541
g531
sI542
g533
sI543
g534
sI544
g535
sI545
g536
sI546
g537
sI547
g538
sI548
g15
sI549
g540
sI550
g36
sI551
g40
sI552
g543
sI553
g544
sI554
g545
sI555
g546
sI556
g295
sI557
g548
sI558
g549
sI559
g550
sI560
g551
sI561
g552
sI562
g553
sI563
g114
sI564
g555
sI565
g556
sI566
g120
sI567
g558
sI568
g559
sI569
g624
sI570
Vo
sI571
g142
sI572
g561
sI573
g248
sI574
g157
sI575
g564
sI576
g565
sI577
g566
sI578
g567
sI579
g568
sI580
g569
sI581
g570
sI582
g572
sI583
g574
sI584
g575
sI585
g576
sI586
g577
sI587
g578
sI588
g579
sI589
g580
sI590
g581
sI591
g262
sI592
g583
sI593
g584
sI594
g585
sI595
g281
sI596
g587
sI597
g588
sI598
g589
sI599
g590
sI600
g591
sI601
g592
sI602
g593
sI603
g594
sI604
g595
sI605
g596
sI606
g326
sI607
g598
sI608
g599
sI609
g600
sI610
g601
sI611
g602
sI612
g603
sI613
g604
sI614
g605
sI615
g606
sI616
g607
sI617
g608
sI618
g609
sI619
g382
sI620
g611
sI621
g612
sI622
g174
sI623
g614
sI624
g615
sI625
g616
sI626
g617
sI627
g618
sI628
g619
sI629
g620
sI630
g621
sI631
g622
sI632
g573
sI633
g571
sI634
g625
sI635
g626
sI636
g627
sI637
g628
sI638
g629
sI639
g630
sI640
g631
sI641
g632
sI642
g633
sI643
g634
sI644
g635
sI645
g636
sI646
g637
sI647
g638
sI648
g639
sI649
g310
sI650
g641
sI651
g642
sI652
g643
sI653
g644
sI654
g276
sI655
g646
sI656
g647
sI657
g648
sI658
g649
sI659
Vm
sI660
g650
sI661
g651
sI662
g652
sI663
g653
sI664
g654
sI665
g532
sI666
g656
sI667
g657
sI668
g658
st.