(dp1
S'run_id'
p2
S'GRU'
p3
sS'cutoff'
p4
F1
sS'time_stop'
p5
I44640
sS'end_sym_system'
p6
S'</s>'
p7
sS'seqlen'
p8
I280
sS'patience'
p9
I5
sS'prefix'
p10
S'model_'
p11
sS'seed'
p12
I1234
sS'sort_k_batches'
p13
I1
sS'triple_step_type'
p14
S'gated'
p15
sS'train_file'
p16
S'tmp/train_data.txt'
p17
sS'output_dim'
p18
I5
sS'end_sym_turn'
p19
S'</t>'
p20
sS'train_freq'
p21
I50
sS'lr'
p22
F0.0001
sS'valid_freq'
p23
I100
sS'embdim'
p24
I100
sS'sent_step_type'
p25
g15
sS'worddim'
p26
I700
sS'valid_file'
p27
S'tmp/dev_data.txt'
p28
sS'activation'
p29
S'lambda x: T.tanh(x)'
p30
sS'minerr'
p31
I-1
sS'oov'
p32
S'<oov>'
p33
sS'updater'
p34
S'adam'
p35
sS'bs'
p36
I500
sS'decoder_bias_type'
p37
S'all'
p38
sS'hdim'
p39
I256
sS'loop_iters'
p40
I3000000
sS'eos_sym'
p41
I0
sS'level'
p42
S'DEBUG'
p43
sS'max_iters'
p44
I10
sS'save_dir'
p45
S'./model'
p46
sS'cost_threshold'
p47
F1.0029999999999999
s.