((dp1
I0
S'<END>'
p2
sI1
S'<START>'
p3
sI2
S'<TOK0>'
p4
sI3
S'<TOK1>'
p5
sI4
S'<TOK2>'
p6
sI5
S'<TOK3>'
p7
sI6
S'<TOK4>'
p8
sI7
S'<TOK5>'
p9
sI8
S'<TOK6>'
p10
sI9
S'<TOK7>'
p11
sI10
S'<TOK8>'
p12
sI11
S'<TOK9>'
p13
sI12
S'<TOK10>'
p14
sI13
S'<TOK11>'
p15
sI14
S'<TOK12>'
p16
sI15
S'<TOK13>'
p17
sI16
S'<TOK14>'
p18
sI17
S'<TOK15>'
p19
sI18
S'<TOK16>'
p20
sI19
S'<TOK17>'
p21
sI20
S'<TOK18>'
p22
sI21
S'<TOK19>'
p23
sI22
Vcalli,
p24
sI23
Vhaydon
p25
sI24
Vkaron,
p26
sI25
Vriccardo
p27
sI26
Vbritani,
p28
sI27
Vkassey
p29
sI28
Vfour
p30
sI29
Vnananne
p31
sI30
Vgilberte,
p32
sI31
Vguinna
p33
sI32
Vroslyn
p34
sI33
Vmariejeanne,
p35
sI34
Vkarlee
p36
sI35
Vgeraldo
p37
sI36
Vtobie
p38
sI37
Vmallorie
p39
sI38
Vlaurel,
p40
sI39
Vregan
p41
sI40
Vlora
p42
sI41
Vclarissa,
p43
sI42
Vcrystie
p44
sI43
Vaurore
p45
sI44
Vwilfred
p46
sI45
S'elisabeth'
p47
sI46
Vdarbie
p48
sI47
Vbrandice,
p49
sI48
S'school'
p50
sI49
Vammamaria
p51
sI50
Vevonne,
p52
sI51
S'wednesday'
p53
sI52
Vatlante,
p54
sI53
Vheddi,
p55
sI54
Vanjela,
p56
sI55
Vmarco,
p57
sI56
Velissa
p58
sI57
Vmarkos
p59
sI58
Vflore,
p60
sI59
S'street'
p61
sI60
Vtownie,
p62
sI61
Vflorence,
p63
sI62
Vgwenni
p64
sI63
Vdianemarie,
p65
sI64
Vchriss
p66
sI65
Vchrist
p67
sI66
Vroddy
p68
sI67
Vtucker,
p69
sI68
S'asia'
p70
sI69
Vdouglis
p71
sI70
Vnew
p72
sI71
Vhans,
p73
sI72
Vphilippe
p74
sI73
Vbutch,
p75
sI74
Vcollette
p76
sI75
Vparwane
p77
sI76
Vrodolphe,
p78
sI77
Vsanford
p79
sI78
Vdore
p80
sI79
Vadey,
p81
sI80
Valeen
p82
sI81
Vgerry
p83
sI82
Vvite,
p84
sI83
S'economics'
p85
sI84
Variel,
p86
sI85
Vzebulen
p87
sI86
Vjogging
p88
sI87
Vkristos,
p89
sI88
Vmalissa,
p90
sI89
Vcresa
p91
sI90
Vi'm
p92
sI91
Vbroddie,
p93
sI92
Vlurette,
p94
sI93
Vmarianna
p95
sI94
Vrhett,
p96
sI95
Volaf,
p97
sI96
Vrickie,
p98
sI97
Vlynna
p99
sI98
Vjeremiah,
p100
sI99
Vwinny,
p101
sI100
Vfergus,
p102
sI101
Vrora,
p103
sI102
Vjanine
p104
sI103
Vmignonne,
p105
sI104
Vjobye,
p106
sI105
Vselena,
p107
sI106
Vwould
p108
sI107
Vthedrick,
p109
sI108
S'hospital'
p110
sI109
Vhan,
p111
sI110
Varliene
p112
sI111
Vflor,
p113
sI112
Vceil,
p114
sI113
Vcall
p115
sI114
Vbinky,
p116
sI115
Vomar,
p117
sI116
Vkalina
p118
sI117
Vtell
p119
sI118
Vmarve
p120
sI119
Vgrier
p121
sI120
Vcandace,
p122
sI121
Vrozanne,
p123
sI122
Vmelba
p124
sI123
Vbogart,
p125
sI124
Venglebert,
p126
sI125
Vme
p127
sI126
S'room'
p128
sI127
Vflore
p129
sI128
Vhiro,
p130
sI129
Vboyce
p131
sI130
Vmillisent
p132
sI131
Vmaximilian
p133
sI132
S'erc'
p134
sI133
Vshoshanna,
p135
sI134
Vmy
p136
sI135
Vmatilda
p137
sI136
Vlise,
p138
sI137
Vlenee,
p139
sI138
Vbarty,
p140
sI139
Vmatthus
p141
sI140
Vmelony
p142
sI141
Vantonius,
p143
sI142
Vpacifica,
p144
sI143
Vjean-christophe,
p145
sI144
Vmaggee,
p146
sI145
Vjulissa
p147
sI146
Vorion
p148
sI147
Vlancelot
p149
sI148
Vwant
p150
sI149
Vmerissa
p151
sI150
Vend
p152
sI151
Vskyler
p153
sI152
Vjoane
p154
sI153
Vantonino
p155
sI154
Vdavie,
p156
sI155
Vwinny
p157
sI156
Valia,
p158
sI157
Vric
p159
sI158
Vinterview
p160
sI159
S'hoy'
p161
sI160
Vriccardo,
p162
sI161
Vhersch
p163
sI162
Vconstanta
p164
sI163
Vwrong
p165
sI164
Vbecki
p166
sI165
Vhailee,
p167
sI166
Vmariejeanne
p168
sI167
Vbrenna
p169
sI168
Varliene,
p170
sI169
S'law'
p171
sI170
Vciel,
p172
sI171
Vglenna
p173
sI172
Vchristofer,
p174
sI173
Voralle
p175
sI174
Vjania
p176
sI175
Vtonya,
p177
sI176
S'g16'
p178
sI177
Vdanna
p179
sI178
Vpeg,
p180
sI179
Vaharon
p181
sI180
Vgenny,
p182
sI181
Vjordy
p183
sI182
Vover
p184
sI183
Vsibylla
p185
sI184
Vpascal
p186
sI185
Vmaressa,
p187
sI186
Vmerrill
p188
sI187
Vvita
p189
sI188
Vberkie,
p190
sI189
Vaugusta,
p191
sI190
Vvite
p192
sI191
Vbrandice
p193
sI192
Vworthington,
p194
sI193
Vedith
p195
sI194
V,
sI195
Vjoanne,
p196
sI196
Vbaily
p197
sI197
Vconney
p198
sI198
Venrica
p199
sI199
Vlavinie,
p200
sI200
Voran,
p201
sI201
Vantone,
p202
sI202
Vlynette,
p203
sI203
Vleeann,
p204
sI204
Vania
p205
sI205
Vflynn,
p206
sI206
Vmorena,
p207
sI207
Vdanyette,
p208
sI208
Valex
p209
sI209
S'quadrangle'
p210
sI210
Vnixie
p211
sI211
Vbrooks,
p212
sI212
Vyovonnda
p213
sI213
Vmead
p214
sI214
Vtamarra,
p215
sI215
Vblinni
p216
sI216
Vroxy
p217
sI217
Vreginald,
p218
sI218
Vstarlene
p219
sI219
Vaida
p220
sI220
Vkellie,
p221
sI221
Vblinny
p222
sI222
Vroxi
p223
sI223
S'doug'
p224
sI224
Vbarrie,
p225
sI225
Vbeilul
p226
sI226
Vtruman
p227
sI227
Vglorianna
p228
sI228
S'saturday'
p229
sI229
Vkathlene
p230
sI230
Vanselm,
p231
sI231
Vforty
p232
sI232
Vdaniel
p233
sI233
Vodette,
p234
sI234
S'medicine'
p235
sI235
Vmandi
p236
sI236
Vcarry,
p237
sI237
Vclarence
p238
sI238
Vneddy,
p239
sI239
Vdorian,
p240
sI240
Vbritani
p241
sI241
Vdorolisa
p242
sI242
Vbenson,
p243
sI243
Vstarts
p244
sI244
Vanson,
p245
sI245
Vaurore,
p246
sI246
Vdamaris
p247
sI247
Vhannibal
p248
sI248
Vcynthia,
p249
sI249
Vhewett
p250
sI250
Vbearnard
p251
sI251
Vmelba,
p252
sI252
Vgera,
p253
sI253
Vclementia
p254
sI254
Vcarree
p255
sI255
Vcarlyle
p256
sI256
Vperi,
p257
sI257
Vten
p258
sI258
S'service'
p259
sI259
Vdarwin,
p260
sI260
Vpeggie
p261
sI261
Vinger
p262
sI262
Vbroddie
p263
sI263
S'gilbert'
p264
sI264
S'john'
p265
sI265
Vjeff,
p266
sI266
Vdion,
p267
sI267
Vstephie,
p268
sI268
Vgym
p269
sI269
Valbert
p270
sI270
Vdorisa,
p271
sI271
Vbegins
p272
sI272
Vmercy
p273
sI273
Vnomi,
p274
sI274
Vpeggi,
p275
sI275
Vbartolomei
p276
sI276
Vgisele,
p277
sI277
Vkathye,
p278
sI278
Vrockwell,
p279
sI279
Vilene
p280
sI280
Vyancey
p281
sI281
Vmind
p282
sI282
Vsharity
p283
sI283
Vmadella
p284
sI284
S'childcare'
p285
sI285
Vferinand
p286
sI286
Vwestleigh
p287
sI287
Vsashenka
p288
sI288
Vterrie
p289
sI289
Vrockwell
p290
sI290
S'-'
sI291
Vmaryrose
p291
sI292
Vebeneser,
p292
sI293
Vulrica
p293
sI294
Valma,
p294
sI295
Vulrich
p295
sI296
Vinigo
p296
sI297
Vsinclare
p297
sI298
Vdorolice,
p298
sI299
Vjoya,
p299
sI300
Vshoshanna
p300
sI301
Vbard,
p301
sI302
Vthe
p302
sI303
Vanthony,
p303
sI304
S'don'
p304
sI305
Vmignonne
p305
sI306
Vrogers
p306
sI307
Vdom
p307
sI308
Vflor
p308
sI309
S'medical'
p309
sI310
Vkarry
p310
sI311
Vconstanta,
p311
sI312
Vsherye
p312
sI313
Vconstance
p313
sI314
Vjean-lou,
p314
sI315
Vkristen
p315
sI316
Vgladis
p316
sI317
Vmelony,
p317
sI318
Vchariot
p318
sI319
Vmyrta,
p319
sI320
Vterese
p320
sI321
Vclaudina,
p321
sI322
S'earth'
p322
sI323
Vpris
p323
sI324
Vcybelle
p324
sI325
Vjoao,
p325
sI326
Vvinni
p326
sI327
Vwoodie,
p327
sI328
Vem,
p328
sI329
Vkylila
p329
sI330
Vrick
p330
sI331
Vtomi,
p331
sI332
Vstephani
p332
sI333
Vjania,
p333
sI334
Vebonee,
p334
sI335
Vdanya,
p335
sI336
Vdo
p336
sI337
Vtedman
p337
sI338
Vtammi
p338
sI339
Vwatch
p339
sI340
Vceil
p340
sI341
Vmeditate
p341
sI342
Vwilow
p342
sI343
Vreport
p343
sI344
S'15'
p344
sI345
Vearl
p345
sI346
Vstormi,
p346
sI347
Vginni,
p347
sI348
Vajay,
p348
sI349
Vleda,
p349
sI350
Vtandy,
p350
sI351
S'18'
p351
sI352
Vgiraldo
p352
sI353
Vleola,
p353
sI354
Vclarance,
p354
sI355
Vtownie
p355
sI356
Vclarette
p356
sI357
Vlorita,
p357
sI358
Vclem
p358
sI359
Vrandolph,
p359
sI360
Vclea
p360
sI361
Vkial,
p361
sI362
Vsaid
p362
sI363
Vcarleigh
p363
sI364
S'grattan'
p364
sI365
Vdasi,
p365
sI366
Vreggy
p366
sI367
Vpaolina,
p367
sI368
Vira
p368
sI369
Vulrike,
p369
sI370
Vgavra,
p370
sI371
Vnena
p371
sI372
Vemelda,
p372
sI373
Vmeredith
p373
sI374
Vflorian,
p374
sI375
S'myer'
p375
sI376
Vedgar
p376
sI377
Vmichaella
p377
sI378
Vcob
p378
sI379
Vdulsea
p379
sI380
Vwinnie
p380
sI381
Vjosh
p381
sI382
Vtomkin
p382
sI383
S'mcphee'
p383
sI384
S'initiative'
p384
sI385
Vcelestyn
p385
sI386
Vpetronille,
p386
sI387
Vthibaud,
p387
sI388
S'union'
p388
sI389
Vthree
p389
sI390
V.
sI391
Vkelsi
p390
sI392
Vsammy,
p391
sI393
Vannalee,
p392
sI394
S'life'
p393
sI395
Vdave
p394
sI396
Vyigal,
p395
sI397
Vclarance
p396
sI398
Vwilow,
p397
sI399
Vchandal,
p398
sI400
Vjeanne,
p399
sI401
Vcharisse
p400
sI402
Vkalvin,
p401
sI403
Vberenice,
p402
sI404
Vcatlee,
p403
sI405
Vjerald
p404
sI406
Vraymund
p405
sI407
Vseven
p406
sI408
Vquincey
p407
sI409
Vbrewer
p408
sI410
Vis
p409
sI411
Vit
p410
sI412
Vpeggie,
p411
sI413
Vjess
p412
sI414
Vmirabella
p413
sI415
Veighteen
p414
sI416
Velijah,
p415
sI417
Vjuana
p416
sI418
Vashton,
p417
sI419
Vin
p418
sI420
Vmerola
p419
sI421
S'pathology'
p420
sI422
Vlottie
p421
sI423
Vleonelle
p422
sI424
Vmyrta
p423
sI425
S'memorial'
p424
sI426
Vdanyelle
p425
sI427
Vbelle
p426
sI428
Vmake
p427
sI429
Vbella
p428
sI430
Vruperta
p429
sI431
Vkarlotta,
p430
sI432
Vtomkin,
p431
sI433
Vmead,
p432
sI434
Vmilt,
p433
sI435
Vinger,
p434
sI436
Vcalypso,
p435
sI437
Vgerry,
p436
sI438
Vhang
p437
sI439
Vhans
p438
sI440
Vanatol,
p439
sI441
Vcarilyn,
p440
sI442
Vbartolomei,
p441
sI443
Vbessy,
p442
sI444
Vdylan
p443
sI445
Vlucas
p444
sI446
Vcharlie
p445
sI447
Vtobie,
p446
sI448
S'academic'
p447
sI449
Vjean
p448
sI450
S'spencer'
p449
sI451
Viago,
p450
sI452
Vkalina,
p451
sI453
Vnewton
p452
sI454
Vgreg,
p453
sI455
Vroderick
p454
sI456
Vthanks
p455
sI457
Vsheena
p456
sI458
Vyes
p457
sI459
Vsue-elle,
p458
sI460
Vmohamed
p459
sI461
Vthane,
p460
sI462
Vhan
p461
sI463
S'dining'
p462
sI464
S'cherry'
p463
sI465
S'royal'
p464
sI466
Vtrina
p465
sI467
Vkalvin
p466
sI468
Vhally,
p467
sI469
Vkeeley
p468
sI470
Valthea
p469
sI471
Vthibaud
p470
sI472
Vgregg
p471
sI473
Vambrose,
p472
sI474
Vmaynord,
p473
sI475
Vcalypso
p474
sI476
Vgustaf
p475
sI477
Vkylila,
p476
sI478
Vdonal
p477
sI479
Vroslyn,
p478
sI480
Vnelie,
p479
sI481
Vizaak
p480
sI482
Vjoana,
p481
sI483
Vorton,
p482
sI484
S'alice'
p483
sI485
Vjule,
p484
sI486
Vremind
p485
sI487
Vgwendolyn
p486
sI488
Vnight
p487
sI489
Vjennilee
p488
sI490
Vright
p489
sI491
S'old'
p490
sI492
Vmeredith,
p491
sI493
Vlorraine,
p492
sI494
Vbenni,
p493
sI495
Vkirstyn,
p494
sI496
Vdorian
p495
sI497
Vthadeus,
p496
sI498
S'<NO>'
p497
sI499
Vemmaline,
p498
sI500
Vsharia,
p499
sI501
Vfor
p500
sI502
Vflorence
p501
sI503
Vfox
p502
sI504
Veverything
p503
sI505
Vphilippe,
p504
sI506
Vjanith
p505
sI507
Vfiorenze,
p506
sI508
Vburl
p507
sI509
Vdental
p508
sI510
Vstefan
p509
sI511
Vaurea,
p510
sI512
Vdevora,
p511
sI513
Vrhona
p512
sI514
Vede,
p513
sI515
Vdonal,
p514
sI516
Vleandra,
p515
sI517
Vdotti
p516
sI518
Vshirline
p517
sI519
Vadey
p518
sI520
Vtymothy
p519
sI521
Vdinner
p520
sI522
Vafternoon
p521
sI523
Vvilma
p522
sI524
Vharrie,
p523
sI525
Vsergio
p524
sI526
Vflorinda,
p525
sI527
Vlois
p526
sI528
Vdante,
p527
sI529
Vmaressa
p528
sI530
Vrobinet
p529
sI531
Vlaural
p530
sI532
Vjena
p531
sI533
Vjeniece
p532
sI534
Vmalva
p533
sI535
Vberchtold
p534
sI536
Vbecki,
p535
sI537
Vannabell
p536
sI538
Vharriett,
p537
sI539
Vadara
p538
sI540
Vjinny
p539
sI541
Vaurelie
p540
sI542
S'clinical'
p541
sI543
Vhally
p542
sI544
Vhappy
p543
sI545
Vhalimeda
p544
sI546
Vorsa,
p545
sI547
Vback
p546
sI548
Vsherye,
p547
sI549
Vignaz
p548
sI550
Vhear
p549
sI551
Vdiena,
p550
sI552
S'221'
p551
sI553
Vreset
p552
sI554
Varabel
p553
sI555
Vvinnie,
p554
sI556
Vemil
p555
sI557
Vtam,
p556
sI558
Vgregg,
p557
sI559
Vuntil
p558
sI560
Vjan,
p559
sI561
Vlissy,
p560
sI562
Verda
p561
sI563
Vevangelin
p562
sI564
Vhumbert,
p563
sI565
Vrenae
p564
sI566
Vbogart
p565
sI567
Vdamaris,
p566
sI568
Voctavius
p567
sI569
Vharvie
p568
sI570
Vcheck
p569
sI571
Vruss,
p570
sI572
Vninetta,
p571
sI573
Vmargarete
p572
sI574
Vvibhu,
p573
sI575
Vroxy,
p574
sI576
Vtrina,
p575
sI577
Vbarnabe,
p576
sI578
Vlorita
p577
sI579
Vyancey,
p578
sI580
Vcherida,
p579
sI581
Vcrystie,
p580
sI582
Vloree
p581
sI583
Vleontyne
p582
sI584
Vdanna,
p583
sI585
Vmerrill,
p584
sI586
Vhervey
p585
sI587
Vtime
p586
sI588
Vcristin
p587
sI589
Vjanette
p588
sI590
Vevelyn
p589
sI591
Vmilt
p590
sI592
Vcharisse,
p591
sI593
Vrod
p592
sI594
Vjanette,
p593
sI595
Vroz
p594
sI596
S'computation'
p595
sI597
Vhelise,
p596
sI598
Vpaulita
p597
sI599
Vgael
p598
sI600
Vginnie,
p599
sI601
Veda,
p600
sI602
Vnineteen
p601
sI603
Vromonda
p602
sI604
Vshannon,
p603
sI605
Vmandi,
p604
sI606
Vlenette
p605
sI607
Vjeremy,
p606
sI608
Vignacius
p607
sI609
Vshandee,
p608
sI610
Vjohannah,
p609
sI611
Vhenriette
p610
sI612
Vbrandi,
p611
sI613
Vleave
p612
sI614
Vwaneta,
p613
sI615
Vruperta,
p614
sI616
Vkerrin,
p615
sI617
Vcasie,
p616
sI618
Vmalva,
p617
sI619
Vkandace,
p618
sI620
Vcherey
p619
sI621
Vjaymee
p620
sI622
Vkaspar
p621
sI623
Vguinna,
p622
sI624
Vsimeon
p623
sI625
Vkandace
p624
sI626
Vcelestine
p625
sI627
Vroarke
p626
sI628
Varvy
p627
sI629
Vcamille,
p628
sI630
Vdavina
p629
sI631
Vannalee
p630
sI632
Vblondell
p631
sI633
Vgladys
p632
sI634
Vmerlina,
p633
sI635
Vsherry,
p634
sI636
Vclayborn
p635
sI637
Vbenson
p636
sI638
Vkeith,
p637
sI639
Vneville
p638
sI640
Vthirty
p639
sI641
S'institute'
p640
sI642
Vlorrin,
p641
sI643
Vyetty
p642
sI644
Vniall,
p643
sI645
Vprudi
p644
sI646
Vmargot
p645
sI647
Vrinaldo,
p646
sI648
Vchurchill
p647
sI649
Vciel
p648
sI650
Vmaryrose,
p649
sI651
Vdidi,
p650
sI652
Vdarrell,
p651
sI653
Vkissiah
p652
sI654
Vangelo
p653
sI655
Vmatthus,
p654
sI656
Vbartolemo,
p655
sI657
Vstephie
p656
sI658
Variel
p657
sI659
Vbianca,
p658
sI660
Vperi
p659
sI661
Vvisit
p660
sI662
Vferinand,
p661
sI663
Vcory
p662
sI664
Vkassi
p663
sI665
Vwood
p664
sI666
Vjanine,
p665
sI667
Vkristian
p666
sI668
S'australian'
p667
sI669
Vkaroly
p668
sI670
Vlulita
p669
sI671
Vaudrye,
p670
sI672
Vfranklyn,
p671
sI673
Vlilias,
p672
sI674
Vaida,
p673
sI675
Vmicky
p674
sI676
Vertha,
p675
sI677
S'brownless'
p676
sI678
Vlazlo
p677
sI679
Volive
p678
sI680
Vsue-elle
p679
sI681
Vlyda,
p680
sI682
Vharriette,
p681
sI683
Vangel,
p682
sI684
Vvalli
p683
sI685
Vfawna
p684
sI686
Vconsolata
p685
sI687
Vcharlie,
p686
sI688
Vpavia,
p687
sI689
Vcoral
p688
sI690
S'december'
p689
sI691
Vreynold
p690
sI692
Vlibby,
p691
sI693
Vcarroll
p692
sI694
Vdennie
p693
sI695
Vcatharine,
p694
sI696
Vheard
p695
sI697
Vemery,
p696
sI698
Vhedda
p697
sI699
Vquiggly,
p698
sI700
Vodette
p699
sI701
Vheddi
p700
sI702
Vclair
p701
sI703
S'sidney'
p702
sI704
Vertha
p703
sI705
Vilene,
p704
sI706
Vmikako
p705
sI707
S'chemical'
p706
sI708
Vtill
p707
sI709
S'sunday'
p708
sI710
Vcatlee
p709
sI711
Vcoleman
p710
sI712
Vjesselyn,
p711
sI713
Vhalvard
p712
sI714
S'may'
p713
sI715
Vbirthday
p714
sI716
Vgale,
p715
sI717
Vmarco
p716
sI718
Vharmon
p717
sI719
Vdevi
p718
sI720
Vgoldia,
p719
sI721
Vvita,
p720
sI722
Vso
p721
sI723
Vbenni
p722
sI724
Vmichel
p723
sI725
Vjoana
p724
sI726
Vberkie
p725
sI727
Vrosetta
p726
sI728
Vdewey,
p727
sI729
Vthane
p728
sI730
Vromona
p729
sI731
Vtull
p730
sI732
Vsascha
p731
sI733
Vselene,
p732
sI734
Vtrudey,
p733
sI735
Vtorr
p734
sI736
Vnettie
p735
sI737
Vtonia
p736
sI738
Vtonie
p737
sI739
Vtucker
p738
sI740
Vanson
p739
sI741
Vhalf
p740
sI742
Vnot
p741
sI743
S'resource'
p742
sI744
Vbinky
p743
sI745
Vnow
p744
sI746
Vardenia,
p745
sI747
S'hall'
p746
sI748
S'biomolecular'
p747
sI749
S'january'
p748
sI750
Vbrody
p749
sI751
Vdidi
p750
sI752
Vjoane,
p751
sI753
Vleda
p752
sI754
Vtandy
p753
sI755
Vkettie
p754
sI756
Vsidoney
p755
sI757
Vjeremy
p756
sI758
Vwildon
p757
sI759
Vquarter
p758
sI760
Vcarmela,
p759
sI761
Vem
p760
sI762
S'square'
p761
sI763
Vleanor,
p762
sI764
Vwaneta
p763
sI765
Vkimmo
p764
sI766
Valbum
p765
sI767
Vsybil
p766
sI768
Vemyle,
p767
sI769
Vkenn
p768
sI770
Vroderick,
p769
sI771
Vmohamed,
p770
sI772
S'27'
p771
sI773
Vjinny,
p772
sI774
Vcorrect
p773
sI775
Vbrooks
p774
sI776
Vbella,
p775
sI777
Vajay
p776
sI778
Vyuri
p777
sI779
Vcarl
p778
sI780
Vcara
p779
sI781
Vkeith
p780
sI782
Valeen,
p781
sI783
Vanatola
p782
sI784
Vondrea,
p783
sI785
Viseabal
p784
sI786
Vanne-marie
p785
sI787
Vlindsey
p786
sI788
Vplace
p787
sI789
Vorly,
p788
sI790
Vcob,
p789
sI791
Vzarah,
p790
sI792
Vmerrili
p791
sI793
Vflower,
p792
sI794
Vrosella,
p793
sI795
Vmercy,
p794
sI796
Vmerrile
p795
sI797
Vone
p796
sI798
Vdiena
p797
sI799
Vnova
p798
sI800
Vcarry
p799
sI801
Vtamara
p800
sI802
Vgeorge
p801
sI803
Vcrysta,
p802
sI804
Vmarice,
p803
sI805
Velden,
p804
sI806
S'2'
sI807
Vjerrilyn
p805
sI808
S'white'
p806
sI809
Valmira
p807
sI810
Vnelie
p808
sI811
Vulrich,
p809
sI812
Vthat
p810
sI813
Vmemo
p811
sI814
S'alan'
p812
sI815
S'11'
p813
sI816
S'10'
p814
sI817
S'13'
p815
sI818
S'12'
p816
sI819
Vhaydon,
p817
sI820
S'14'
p818
sI821
S'17'
p819
sI822
S'16'
p820
sI823
S'19'
p821
sI824
Vcherey,
p822
sI825
Vrodolphe
p823
sI826
Vteena,
p824
sI827
Vcybelle,
p825
sI828
Vlissy
p826
sI829
S'victorian'
p827
sI830
Vderby,
p828
sI831
S'and'
p829
sI832
Vterese,
p830
sI833
Vangel
p831
sI834
Vsal
p832
sI835
Vkathye
p833
sI836
Vann
p834
sI837
Vbelinda,
p835
sI838
Vmellisa
p836
sI839
Vadela
p837
sI840
Vdasi
p838
sI841
Vbettie
p839
sI842
Vrent
p840
sI843
Vthadeus
p841
sI844
Vroxi,
p842
sI845
Vsal,
p843
sI846
Vboyd
p844
sI847
S'sciences'
p845
sI848
Vphillipp
p846
sI849
Vtake
p847
sI850
Valoisia
p848
sI851
Vhannibal,
p849
sI852
Vmalissa
p850
sI853
Vbegin
p851
sI854
Vmichel,
p852
sI855
S'theatre'
p853
sI856
Vtraci
p854
sI857
Vethelin
p855
sI858
Vsean,
p856
sI859
Vdamien,
p857
sI860
Vbobette
p858
sI861
Valoisia,
p859
sI862
Vdavina,
p860
sI863
Varianne,
p861
sI864
Vcorrie
p862
sI865
Vetta,
p863
sI866
Vnancie
p864
sI867
Vtaddeo
p865
sI868
Vminny,
p866
sI869
S'geography'
p867
sI870
Vebeneser
p868
sI871
Vstarlene,
p869
sI872
Vstephannie,
p870
sI873
S'3'
sI874
Vnanon,
p871
sI875
Vgoing
p872
sI876
Vstormi
p873
sI877
Vrobb
p874
sI878
Vrandall,
p875
sI879
Vchantal
p876
sI880
Vyelena
p877
sI881
Vget
p878
sI882
Vjosh,
p879
sI883
Vhailee
p880
sI884
Vnels
p881
sI885
Vbelita
p882
sI886
Vgoldia
p883
sI887
Vmalvina
p884
sI888
Vharriette
p885
sI889
Vdorolisa,
p886
sI890
Vmaggee
p887
sI891
Vconstantin,
p888
sI892
Vstacie
p889
sI893
Vmorning
p890
sI894
Vharmon,
p891
sI895
Vfreeman,
p892
sI896
Vchristalle,
p893
sI897
Vlaraine,
p894
sI898
Vardys
p895
sI899
Vcarole,
p896
sI900
Vdom,
p897
sI901
Vdotti,
p898
sI902
Vgwendolyn,
p899
sI903
S'college'
p900
sI904
Vsean
p901
sI905
Vquiggly
p902
sI906
Verminia,
p903
sI907
Vmugsy,
p904
sI908
Vtimmi,
p905
sI909
Vteena
p906
sI910
Voutside
p907
sI911
Vbrigitta,
p908
sI912
Vkarmen
p909
sI913
Vcathe,
p910
sI914
Vcharlotte,
p911
sI915
Vvictor,
p912
sI916
Vgeraldo,
p913
sI917
Vamory
p914
sI918
Vleanne
p915
sI919
Vkristal
p916
sI920
Vcarolee
p917
sI921
Vskyler,
p918
sI922
S'26'
p919
sI923
Velijah
p920
sI924
Velnora,
p921
sI925
Vmariette
p922
sI926
Vrhona,
p923
sI927
Vkirsten
p924
sI928
Vdudley,
p925
sI929
Vjesselyn
p926
sI930
Vbernette,
p927
sI931
Vtome,
p928
sI932
Vsimeon,
p929
sI933
S'hercus'
p930
sI934
Vkirstyn
p931
sI935
Vchristie
p932
sI936
S'audiology'
p933
sI937
Vselene
p934
sI938
Vnanette
p935
sI939
Vzarah
p936
sI940
Vjeane
p937
sI941
Vlane,
p938
sI942
Vkinna
p939
sI943
Venglebert
p940
sI944
S'arts'
p941
sI945
Vkatlin
p942
sI946
Vhoward
p943
sI947
S'barry'
p944
sI948
Vcarey
p945
sI949
Vtimmi
p946
sI950
Vmart
p947
sI951
Vmarv
p948
sI952
Vjeane,
p949
sI953
Vkelcey,
p950
sI954
Vmary
p951
sI955
Vshopping
p952
sI956
Vamery
p953
sI957
Vchiquita,
p954
sI958
Vnikos
p955
sI959
Vgiraldo,
p956
sI960
Vjean,
p957
sI961
Vwake
p958
sI962
Vruby
p959
sI963
Vantone
p960
sI964
Vsollie
p961
sI965
Vingemar
p962
sI966
Vnoach,
p963
sI967
Vstanfield,
p964
sI968
Volive,
p965
sI969
Vderrin
p966
sI970
Vhercule
p967
sI971
Valdus,
p968
sI972
Vcandace
p969
sI973
Vmarcel
p970
sI974
Vjanean,
p971
sI975
Vpierre,
p972
sI976
Vloree,
p973
sI977
Vpepi
p974
sI978
Vdoctor
p975
sI979
Vthatch,
p976
sI980
Vdasya
p977
sI981
Vjobye
p978
sI982
S'speech'
p979
sI983
Vbeilul,
p980
sI984
Vmirabella,
p981
sI985
Vreminder
p982
sI986
Vgiavani,
p983
sI987
Vfinish
p984
sI988
Vharrie
p985
sI989
Vlois,
p986
sI990
Vsergio,
p987
sI991
Vgiavani
p988
sI992
Vpaulita,
p989
sI993
Vrozanne
p990
sI994
Vaurelie,
p991
sI995
Vtheater
p992
sI996
Vpepillo,
p993
sI997
Vno
p994
sI998
Vjenda
p995
sI999
Vbobbie,
p996
sI1000
Vcrissie,
p997
sI1001
Vnoam
p998
sI1002
Vmoise,
p999
sI1003
Vrobina
p1000
sI1004
Vsaundra,
p1001
sI1005
Vcasie
p1002
sI1006
S'baldwin'
p1003
sI1007
Vleanne,
p1004
sI1008
Vethyl
p1005
sI1009
Vruby,
p1006
sI1010
Vsixteen
p1007
sI1011
Valthea,
p1008
sI1012
Vbryn
p1009
sI1013
Vtwyla
p1010
sI1014
Vgoddard,
p1011
sI1015
Vtonya
p1012
sI1016
Vdallas,
p1013
sI1017
S'4'
sI1018
S'mcdonell'
p1014
sI1019
Vbernardo
p1015
sI1020
Vselma
p1016
sI1021
Vroddy,
p1017
sI1022
Vmerrielle
p1018
sI1023
Vregan,
p1019
sI1024
Vtheophyllus,
p1020
sI1025
Vrebecca
p1021
sI1026
Vorelia,
p1022
sI1027
Vdianemarie
p1023
sI1028
Vhedda,
p1024
sI1029
Vdirk,
p1025
sI1030
Vmartina,
p1026
sI1031
Vregen,
p1027
sI1032
Vleonardo,
p1028
sI1033
Vmorena
p1029
sI1034
Vaurea
p1030
sI1035
Vmelisande
p1031
sI1036
Vwinnie,
p1032
sI1037
S'baillieu'
p1033
sI1038
Vkarlotte,
p1034
sI1039
Veddie
p1035
sI1040
Vzsazsa
p1036
sI1041
S'boas'
p1037
sI1042
Vguillermo
p1038
sI1043
Vkelcey
p1039
sI1044
Vjoao
p1040
sI1045
Vcoral,
p1041
sI1046
Vcharleen
p1042
sI1047
Vnoon
p1043
sI1048
Vdudley
p1044
sI1049
Vcarilyn
p1045
sI1050
Vmerrili,
p1046
sI1051
Vephraim
p1047
sI1052
Vtrudey
p1048
sI1053
Vnels,
p1049
sI1054
Vfootball
p1050
sI1055
S'business'
p1051
sI1056
Vchloris
p1052
sI1057
Vcristin,
p1053
sI1058
Vjennette
p1054
sI1059
Vbarrie
p1055
sI1060
Vbaillie,
p1056
sI1061
Vcoreen,
p1057
sI1062
Vzebulen,
p1058
sI1063
Vlet's
p1059
sI1064
Vok
p1060
sI1065
S'of'
p1061
sI1066
Vcristen,
p1062
sI1067
Vniall
p1063
sI1068
S'west'
p1064
sI1069
Vlynna,
p1065
sI1070
Vkalie
p1066
sI1071
Vmadelaine
p1067
sI1072
Vmyrtia,
p1068
sI1073
Vricki,
p1069
sI1074
Vemlyn,
p1070
sI1075
Vtrip,
p1071
sI1076
S'area'
p1072
sI1077
Vronald,
p1073
sI1078
Varel
p1074
sI1079
Vthere
p1075
sI1080
Vstart
p1076
sI1081
Vclaybourne,
p1077
sI1082
Vmissy
p1078
sI1083
Vadrian,
p1079
sI1084
Vkacie
p1080
sI1085
Vtamarra
p1081
sI1086
Vrorie
p1082
sI1087
Vtedman,
p1083
sI1088
Vsuzette
p1084
sI1089
Vdena,
p1085
sI1090
Vwith
p1086
sI1091
S'october'
p1087
sI1092
Vhiro
p1088
sI1093
Vlorelei
p1089
sI1094
Vbessy
p1090
sI1095
Vmarna
p1091
sI1096
Vshauna
p1092
sI1097
Vlaverna
p1093
sI1098
Vruss
p1094
sI1099
Vminny
p1095
sI1100
Vapollo,
p1096
sI1101
Vgiffard
p1097
sI1102
Vestel,
p1098
sI1103
Vcreat
p1099
sI1104
Vania,
p1100
sI1105
Vam
p1101
sI1106
Vorsa
p1102
sI1107
Vas
p1103
sI1108
Vlari,
p1104
sI1109
Vat
p1105
sI1110
Vguillermo,
p1106
sI1111
Vzsazsa,
p1107
sI1112
Vmargot,
p1108
sI1113
Vincorrect
p1109
sI1114
Vagain
p1110
sI1115
Vthor,
p1111
sI1116
Vvickie
p1112
sI1117
Vmalvina,
p1113
sI1118
Vlenette,
p1114
sI1119
S'5'
sI1120
Vcarli,
p1115
sI1121
Vgenna
p1116
sI1122
Vyou
p1117
sI1123
S'hollyock'
p1118
sI1124
Vbrandi
p1119
sI1125
Vrhett
p1120
sI1126
Vkellen,
p1121
sI1127
Vnichol
p1122
sI1128
Vbrenna,
p1123
sI1129
Vrenae,
p1124
sI1130
Vdorisa
p1125
sI1131
Vberenice
p1126
sI1132
S'building'
p1127
sI1133
Vtamara,
p1128
sI1134
Vtwyla,
p1129
sI1135
Vpadraig
p1130
sI1136
Vpris,
p1131
sI1137
Valvina
p1132
sI1138
Vjerrilyn,
p1133
sI1139
Varianne
p1134
sI1140
Vsuzette,
p1135
sI1141
Voran
p1136
sI1142
Vcleva,
p1137
sI1143
Vjeromy
p1138
sI1144
Vforget
p1139
sI1145
Vali
p1140
sI1146
Vismail
p1141
sI1147
Vgael,
p1142
sI1148
Vlilli,
p1143
sI1149
Vboris,
p1144
sI1150
Vshani,
p1145
sI1151
Verminie
p1146
sI1152
Vbaillie
p1147
sI1153
Vcarlen,
p1148
sI1154
Vardenia
p1149
sI1155
Vto
p1150
sI1156
S'program'
p1151
sI1157
Vnorm
p1152
sI1158
S'7'
sI1159
Vdevin,
p1153
sI1160
Vfar
p1154
sI1161
Vemil,
p1155
sI1162
Vdonetta
p1156
sI1163
Vsephira
p1157
sI1164
Vfrederik
p1158
sI1165
Vrog
p1159
sI1166
Velene
p1160
sI1167
Vtrixi,
p1161
sI1168
Valma
p1162
sI1169
Vjehu,
p1163
sI1170
Valbert,
p1164
sI1171
Vdouglis,
p1165
sI1172
Vmorgan,
p1166
sI1173
Vlise
p1167
sI1174
Vmaggie
p1168
sI1175
Vchrist,
p1169
sI1176
Vira,
p1170
sI1177
Vblaire
p1171
sI1178
Vermina
p1172
sI1179
Vpast
p1173
sI1180
S'design'
p1174
sI1181
Valphonse,
p1175
sI1182
Vdasya,
p1176
sI1183
Vneddy
p1177
sI1184
Vwhat
p1178
sI1185
Vblinni,
p1179
sI1186
Vingemar,
p1180
sI1187
Vnady,
p1181
sI1188
Vkarna
p1182
sI1189
S'microbiology'
p1183
sI1190
Vcelestyn,
p1184
sI1191
Vignatius,
p1185
sI1192
Varlie
p1186
sI1193
Vmavis,
p1187
sI1194
Vsybilla
p1188
sI1195
Vcharmian,
p1189
sI1196
Vhours
p1190
sI1197
S'street,'
p1191
sI1198
Vangelo,
p1192
sI1199
S'november'
p1193
sI1200
Vcathe
p1194
sI1201
Vrori
p1195
sI1202
Vkellina,
p1196
sI1203
Verminia
p1197
sI1204
Vfergus
p1198
sI1205
Vrora
p1199
sI1206
Vagatha
p1200
sI1207
Vhettie,
p1201
sI1208
Vcristen
p1202
sI1209
Vconstance,
p1203
sI1210
Vvic
p1204
sI1211
Vshirline,
p1205
sI1212
Vgizela
p1206
sI1213
Vcleland,
p1207
sI1214
Vtymon,
p1208
sI1215
Vabdel
p1209
sI1216
Vlyda
p1210
sI1217
Vbettie,
p1211
sI1218
Vtakes
p1212
sI1219
Vkittie
p1213
sI1220
Vtonie,
p1214
sI1221
Vkirsten,
p1215
sI1222
Vtwo
p1216
sI1223
Volle,
p1217
sI1224
Vcrissy
p1218
sI1225
S'6'
sI1226
Vmorton,
p1219
sI1227
Vbrandea
p1220
sI1228
Vpatty,
p1221
sI1229
Vfreda
p1222
sI1230
Vkarlee,
p1223
sI1231
Vdion
p1224
sI1232
Vvi,
p1225
sI1233
Vlazaro
p1226
sI1234
Vkristos
p1227
sI1235
Vtown
p1228
sI1236
Vaharon,
p1229
sI1237
Vhour
p1230
sI1238
Vdamien
p1231
sI1239
S'science'
p1232
sI1240
Vwilona,
p1233
sI1241
Vtorr,
p1234
sI1242
Vberty
p1235
sI1243
Vnine
p1236
sI1244
Valix,
p1237
sI1245
Vmorgan
p1238
sI1246
Vmargalo,
p1239
sI1247
Vleola
p1240
sI1248
Vmarkos,
p1241
sI1249
Vgonzalo,
p1242
sI1250
Vhoward,
p1243
sI1251
Vkelsey,
p1244
sI1252
Vodie,
p1245
sI1253
Vcherin
p1246
sI1254
Vantonino,
p1247
sI1255
Vcherie
p1248
sI1256
Vrozanna,
p1249
sI1257
Vclint
p1250
sI1258
Vdave,
p1251
sI1259
Vkalie,
p1252
sI1260
Vfawna,
p1253
sI1261
Vflorinda
p1254
sI1262
Vdanie,
p1255
sI1263
Vgisele
p1256
sI1264
Vchurchill,
p1257
sI1265
Vkarlotta
p1258
sI1266
Vkarlotte
p1259
sI1267
Vchristalle
p1260
sI1268
Vobadiah
p1261
sI1269
Vcorrie,
p1262
sI1270
S'dow'
p1263
sI1271
Voralle,
p1264
sI1272
Vsven
p1265
sI1273
Vadela,
p1266
sI1274
Vcristine,
p1267
sI1275
S'faculty'
p1268
sI1276
Vulrike
p1269
sI1277
Vmalena
p1270
sI1278
Va
sI1279
Vki,
p1271
sI1280
Vsusan
p1272
sI1281
Vmarice
p1273
sI1282
Vmarlow
p1274
sI1283
Vkirstie
p1275
sI1284
Vpay
p1276
sI1285
Vshani
p1277
sI1286
Vsascha,
p1278
sI1287
Vthat's
p1279
sI1288
Vbrena,
p1280
sI1289
Vevangelin,
p1281
sI1290
Vleigh
p1282
sI1291
Vdon't
p1283
sI1292
S'september'
p1284
sI1293
Vmortimer,
p1285
sI1294
Vchicky
p1286
sI1295
Vsusan,
p1287
sI1296
Vcarmela
p1288
sI1297
Veadith
p1289
sI1298
Vcarmelina
p1290
sI1299
Vkellina
p1291
sI1300
S'24'
p1292
sI1301
S'25'
p1293
sI1302
S'jacobs'
p1294
sI1303
Vclarette,
p1295
sI1304
S'20'
p1296
sI1305
S'21'
p1297
sI1306
S'22'
p1298
sI1307
S'23'
p1299
sI1308
Vabelard
p1300
sI1309
S'28'
p1301
sI1310
S'29'
p1302
sI1311
Valli
p1303
sI1312
Vkassey,
p1304
sI1313
Vpavia
p1305
sI1314
Visaac
p1306
sI1315
Vlottie,
p1307
sI1316
Varlie,
p1308
sI1317
Vevening
p1309
sI1318
Vreturn
p1310
sI1319
Vbartolemo
p1311
sI1320
Vmatilda,
p1312
sI1321
Vbernette
p1313
sI1322
Vsibelle,
p1314
sI1323
Vrozanna
p1315
sI1324
Vodie
p1316
sI1325
Vwally
p1317
sI1326
Vconstantine,
p1318
sI1327
Vkerrin
p1319
sI1328
Vcasia
p1320
sI1329
Vcollette,
p1321
sI1330
Velric,
p1322
sI1331
Vricard,
p1323
sI1332
Vpaula
p1324
sI1333
Vveronike,
p1325
sI1334
Vkaleena,
p1326
sI1335
Vabdel,
p1327
sI1336
Vneil
p1328
sI1337
Voral,
p1329
sI1338
S'house'
p1330
sI1339
Vkeren,
p1331
sI1340
Vboyce,
p1332
sI1341
Vgilberte
p1333
sI1342
Vrandolph
p1334
sI1343
Vgus
p1335
sI1344
Vflower
p1336
sI1345
S'psychology'
p1337
sI1346
Vsephira,
p1338
sI1347
Vcherie,
p1339
sI1348
S'electronic'
p1340
sI1349
Vmiguelita
p1341
sI1350
S'research'
p1342
sI1351
Valvina,
p1343
sI1352
S'health'
p1344
sI1353
Vebonee
p1345
sI1354
Vmeira
p1346
sI1355
Vkeeley,
p1347
sI1356
Vconstantin
p1348
sI1357
Vjeremiah
p1349
sI1358
Vchriss,
p1350
sI1359
S'friday'
p1351
sI1360
Vrickie
p1352
sI1361
Vmilicent,
p1353
sI1362
Vrikki
p1354
sI1363
Vdirk
p1355
sI1364
Vrandall
p1356
sI1365
S'laby'
p1357
sI1366
Vbeginning
p1358
sI1367
Vandrzej
p1359
sI1368
Vbrewer,
p1360
sI1369
Vwally,
p1361
sI1370
Vlavinie
p1362
sI1371
Vroddie
p1363
sI1372
Vobadiah,
p1364
sI1373
Vrog,
p1365
sI1374
Velden
p1366
sI1375
Vephraim,
p1367
sI1376
Vdone
p1368
sI1377
Vpascal,
p1369
sI1378
Vevonne
p1370
sI1379
Vmelva,
p1371
sI1380
Vtwenty
p1372
sI1381
Vnomi
p1373
sI1382
Vleighton
p1374
sI1383
Vskipp,
p1375
sI1384
Vkarry,
p1376
sI1385
Vellen,
p1377
sI1386
Vblaire,
p1378
sI1387
Vaudrye
p1379
sI1388
Vstephannie
p1380
sI1389
Vchicky,
p1381
sI1390
Vleeann
p1382
sI1391
Vernestine
p1383
sI1392
Vweber,
p1384
sI1393
Vcele,
p1385
sI1394
Vfox,
p1386
sI1395
Vkaron
p1387
sI1396
Vcarleigh,
p1388
sI1397
Vdoralia
p1389
sI1398
Vblondell,
p1390
sI1399
Vmerrielle,
p1391
sI1400
Vgreg
p1392
sI1401
Vdani
p1393
sI1402
Vshauna,
p1394
sI1403
Vjefry
p1395
sI1404
Vstefan,
p1396
sI1405
Vagatha,
p1397
sI1406
Vemlyn
p1398
sI1407
Vcharlotte
p1399
sI1408
Vsanford,
p1400
sI1409
Vnellie,
p1401
sI1410
Vgale
p1402
sI1411
Vchandal
p1403
sI1412
Vsollie,
p1404
sI1413
Vsawyere
p1405
sI1414
Vmelva
p1406
sI1415
Vmoise
p1407
sI1416
Vbevvy,
p1408
sI1417
S'cardigan'
p1409
sI1418
Vshelby
p1410
sI1419
Vtrip
p1411
sI1420
Vjuana,
p1412
sI1421
Vcresa,
p1413
sI1422
Valso
p1414
sI1423
Vkaleena
p1415
sI1424
Vsebastiano
p1416
sI1425
Vclea,
p1417
sI1426
Vbobbie
p1418
sI1427
Vemmaline
p1419
sI1428
Vorton
p1420
sI1429
Vsherry
p1421
sI1430
Vemerson,
p1422
sI1431
Volag,
p1423
sI1432
Vkendal
p1424
sI1433
Vcaroleen
p1425
sI1434
Vcharleen,
p1426
sI1435
Vkimberlee
p1427
sI1436
Vbrandea,
p1428
sI1437
Vsawyer,
p1429
sI1438
Vroarke,
p1430
sI1439
Vrosetta,
p1431
sI1440
Vmargalo
p1432
sI1441
Vsebastien,
p1433
sI1442
Vjulius,
p1434
sI1443
Vsibyl
p1435
sI1444
Vki
p1436
sI1445
Vhumbert
p1437
sI1446
Vvaclav,
p1438
sI1447
S'physics'
p1439
sI1448
S'thomas'
p1440
sI1449
Vvinnie
p1441
sI1450
Vvalli,
p1442
sI1451
Vcarlen
p1443
sI1452
Vleandra
p1444
sI1453
Vtheophyllus
p1445
sI1454
Vkatharina,
p1446
sI1455
Vfine
p1447
sI1456
Vearl,
p1448
sI1457
Vdanyelle,
p1449
sI1458
Vchiquita
p1450
sI1459
Vbelle,
p1451
sI1460
Vuta,
p1452
sI1461
S'8'
sI1462
Vdarwin
p1453
sI1463
Vnickie
p1454
sI1464
Vvinni,
p1455
sI1465
Vlorettalorna
p1456
sI1466
Vyonina,
p1457
sI1467
Vcele
p1458
sI1468
Vmarv,
p1459
sI1469
Vleontyne,
p1460
sI1470
Vjeanne
p1461
sI1471
Vtobe
p1462
sI1472
Vhewett,
p1463
sI1473
Vkarna,
p1464
sI1474
Vmarleah
p1465
sI1475
Vflorette
p1466
sI1476
Vjill,
p1467
sI1477
Vdante
p1468
sI1478
Vrinaldo
p1469
sI1479
Vnena,
p1470
sI1480
Varyn
p1471
sI1481
Vjacquelyn,
p1472
sI1482
Valdus
p1473
sI1483
Vfiorenze
p1474
sI1484
Vomar
p1475
sI1485
Vseventeen
p1476
sI1486
Vset
p1477
sI1487
S'priestley'
p1478
sI1488
Vperceval
p1479
sI1489
Vbary
p1480
sI1490
Vbryn,
p1481
sI1491
Vmaximilian,
p1482
sI1492
Vfreda,
p1483
sI1493
Vsee
p1484
sI1494
Vmaribeth,
p1485
sI1495
Vanatola,
p1486
sI1496
Vare
p1487
sI1497
Vblinny,
p1488
sI1498
Vconrad,
p1489
sI1499
Vallie
p1490
sI1500
Vernestine,
p1491
sI1501
Vcleland
p1492
sI1502
Vplease
p1493
sI1503
Vmarcellina,
p1494
sI1504
Vlorelle,
p1495
sI1505
Vmelisande,
p1496
sI1506
Vmailbox
p1497
sI1507
Vcatharine
p1498
sI1508
Vmegan,
p1499
sI1509
Valli,
p1500
sI1510
Vleo
p1501
sI1511
Vwater
p1502
sI1512
S'c'
sI1513
Vlast
p1503
sI1514
Vrestaurant
p1504
sI1515
Vyelena,
p1505
sI1516
Vmarleah,
p1506
sI1517
Vthor
p1507
sI1518
Vleanor
p1508
sI1519
Vedythe
p1509
sI1520
Vtruda,
p1510
sI1521
Vpatty
p1511
sI1522
Vklarrisa
p1512
sI1523
Vcaroljean
p1513
sI1524
Vtown,
p1514
sI1525
Vjeff
p1515
sI1526
Vbinny
p1516
sI1527
Vbela
p1517
sI1528
Volle
p1518
sI1529
S'community'
p1519
sI1530
Vskipp
p1520
sI1531
Vanjela
p1521
sI1532
Vsammy
p1522
sI1533
Vvan,
p1523
sI1534
Vdevin
p1524
sI1535
Vreta
p1525
sI1536
Varel,
p1526
sI1537
S'publishing'
p1527
sI1538
Vall
p1528
sI1539
Vcreate
p1529
sI1540
Vchange
p1530
sI1541
Vcollected
p1531
sI1542
Vmaggy,
p1532
sI1543
Vcarl,
p1533
sI1544
Vmeeting
p1534
sI1545
Vpm
p1535
sI1546
Vkathy
p1536
sI1547
Vrogers,
p1537
sI1548
Vflight
p1538
sI1549
Vcarroll,
p1539
sI1550
S'counselling'
p1540
sI1551
Vlulu
p1541
sI1552
Vdennie,
p1542
sI1553
Vleo,
p1543
sI1554
S'dulcie'
p1544
sI1555
Vanthony
p1545
sI1556
Vwhitney
p1546
sI1557
Vclaybourne
p1547
sI1558
Vlegra
p1548
sI1559
Vplants
p1549
sI1560
Vdevi,
p1550
sI1561
Vmatch
p1551
sI1562
Vardys,
p1552
sI1563
Vclarence,
p1553
sI1564
Vlynette
p1554
sI1565
Vdarrell
p1555
sI1566
Vrabi,
p1556
sI1567
Vquillan,
p1557
sI1568
Vreggy,
p1558
sI1569
Vestel
p1559
sI1570
Vondrea
p1560
sI1571
Vviole
p1561
sI1572
Vvaclav
p1562
sI1573
S'9'
sI1574
Vbobine,
p1563
sI1575
Vanatol
p1564
sI1576
Vamory,
p1565
sI1577
Vwilone
p1566
sI1578
Vmonika,
p1567
sI1579
Vwilona
p1568
sI1580
Vmerissa,
p1569
sI1581
Vsibyl,
p1570
sI1582
Vkristal,
p1571
sI1583
Vfanni,
p1572
sI1584
Vdarrel,
p1573
sI1585
Vjanean
p1574
sI1586
Vmavis
p1575
sI1587
Verastus,
p1576
sI1588
Vgavra
p1577
sI1589
Verminie,
p1578
sI1590
Vdaren
p1579
sI1591
Vreginald
p1580
sI1592
Vlorettalorna,
p1581
sI1593
Vsalvatore
p1582
sI1594
S'chaplains'
p1583
sI1595
S'chemistry'
p1584
sI1596
Vleone
p1585
sI1597
Vantonie,
p1586
sI1598
Vclarisse,
p1587
sI1599
Vmeta,
p1588
sI1600
Vquarters
p1589
sI1601
Vbancroft
p1590
sI1602
Vlancelot,
p1591
sI1603
Vclementia,
p1592
sI1604
Vsheena,
p1593
sI1605
Verika,
p1594
sI1606
Vtoma,
p1595
sI1607
Vmyrtia
p1596
sI1608
Vmoria,
p1597
sI1609
Vgrier,
p1598
sI1610
Vstacie,
p1599
sI1611
Vlindsy,
p1600
sI1612
Vandria
p1601
sI1613
Vmelloney,
p1602
sI1614
Vlocation
p1603
sI1615
Vtillie
p1604
sI1616
Vderrin,
p1605
sI1617
S'march'
p1606
sI1618
Vannalyse
p1607
sI1619
Vhercule,
p1608
sI1620
Vclyde,
p1609
sI1621
Vprudi,
p1610
sI1622
Vmarcy
p1611
sI1623
Vmonika
p1612
sI1624
Vnanette,
p1613
sI1625
Vambrose
p1614
sI1626
Vadara,
p1615
sI1627
Vhelise
p1616
sI1628
Vveronike
p1617
sI1629
Vcollect
p1618
sI1630
Vcara,
p1619
sI1631
Vwaylin
p1620
sI1632
Vmarve,
p1621
sI1633
S'mathematical'
p1622
sI1634
S'doherty'
p1623
sI1635
Vchantalle
p1624
sI1636
Vmirella
p1625
sI1637
Vbrena
p1626
sI1638
Vsome
p1627
sI1639
Vpierre
p1628
sI1640
Vyuri,
p1629
sI1641
Vleone,
p1630
sI1642
Valphonse
p1631
sI1643
Vgracie
p1632
sI1644
Vpetronille
p1633
sI1645
S'thursday'
p1634
sI1646
S'veterinary'
p1635
sI1647
Vlorraine
p1636
sI1648
Vjeniece,
p1637
sI1649
Vmarcellina
p1638
sI1650
Vlari
p1639
sI1651
Vpeg
p1640
sI1652
Vkarmen,
p1641
sI1653
Vbe
p1642
sI1654
Vdanya
p1643
sI1655
Vkelsey
p1644
sI1656
Vorly
p1645
sI1657
Vmikako,
p1646
sI1658
Vlasts
p1647
sI1659
Vglorianna,
p1648
sI1660
Vmarcy,
p1649
sI1661
Vby
p1650
sI1662
Vbrody,
p1651
sI1663
Vsibelle
p1652
sI1664
Vshina
p1653
sI1665
S'melbourne'
p1654
sI1666
Vann,
p1655
sI1667
Vbarnabe
p1656
sI1668
Vsawyere,
p1657
sI1669
Vdarbie,
p1658
sI1670
Vcherin,
p1659
sI1671
S'block'
p1660
sI1672
Vtwelve
p1661
sI1673
S'services'
p1662
sI1674
Vtobe,
p1663
sI1675
Vdylan,
p1664
sI1676
Vsven,
p1665
sI1677
Vjamima
p1666
sI1678
Vulrica,
p1667
sI1679
Vchloris,
p1668
sI1680
Vjohnathon
p1669
sI1681
Van
p1670
sI1682
Vregen
p1671
sI1683
Vabdulkarim
p1672
sI1684
Vbaird,
p1673
sI1685
Vkassi,
p1674
sI1686
Vvibhu
p1675
sI1687
Vdaloris
p1676
sI1688
Vandria,
p1677
sI1689
Vuta
p1678
sI1690
Vkellie
p1679
sI1691
Vdoralia,
p1680
sI1692
Vup
p1681
sI1693
Vus
p1682
sI1694
Volenka
p1683
sI1695
Valarm
p1684
sI1696
Vemmy,
p1685
sI1697
Vginnie
p1686
sI1698
Vscarlet
p1687
sI1699
S'engineering'
p1688
sI1700
Vcristine
p1689
sI1701
Vmadella,
p1690
sI1702
Vsashenka,
p1691
sI1703
Vlurleen
p1692
sI1704
Vneil,
p1693
sI1705
Vemmalynn,
p1694
sI1706
Vgizela,
p1695
sI1707
Vvic,
p1696
sI1708
Vyigal
p1697
sI1709
Vgiffard,
p1698
sI1710
Vgre
p1699
sI1711
S'electrical'
p1700
sI1712
Vellen
p1701
sI1713
Velaina,
p1702
sI1714
S'department'
p1703
sI1715
Vsaundra
p1704
sI1716
Vklarrisa,
p1705
sI1717
Vmerlina
p1706
sI1718
Vbianca
p1707
sI1719
Vximenez
p1708
sI1720
Vlane
p1709
sI1721
Vgwenni,
p1710
sI1722
Vvick
p1711
sI1723
Vsawyer
p1712
sI1724
Vfrederik,
p1713
sI1725
Vrebecca,
p1714
sI1726
Vashton
p1715
sI1727
Vhello
p1716
sI1728
Vbernardo,
p1717
sI1729
Vteodora
p1718
sI1730
Vhappy,
p1719
sI1731
Vede
p1720
sI1732
Vcynthia
p1721
sI1733
Vfanni
p1722
sI1734
Vmallorie,
p1723
sI1735
Vkristian,
p1724
sI1736
Vjenda,
p1725
sI1737
Vgo
p1726
sI1738
Valmira,
p1727
sI1739
Vkimmo,
p1728
sI1740
Vdulsea,
p1729
sI1741
Vlilli
p1730
sI1742
Voclock
p1731
sI1743
S'kwong'
p1732
sI1744
Vjakob
p1733
sI1745
Veloisa
p1734
sI1746
Veloise
p1735
sI1747
Vmaiga
p1736
sI1748
Vmadelaine,
p1737
sI1749
Vclem,
p1738
sI1750
Vwhitney,
p1739
sI1751
Vemyle
p1740
sI1752
Vlibby
p1741
sI1753
Vgenna,
p1742
sI1754
Volaf
p1743
sI1755
Volag
p1744
sI1756
Vscarlet,
p1745
sI1757
Vtry
p1746
sI1758
Vjulius
p1747
sI1759
Vjamima,
p1748
sI1760
Vmichaella,
p1749
sI1761
Vleonardo
p1750
sI1762
Vconsolata,
p1751
sI1763
Vclaudie
p1752
sI1764
Vbary,
p1753
sI1765
Vcarli
p1754
sI1766
Vmaribeth
p1755
sI1767
Vvictor
p1756
sI1768
Vmaryjo
p1757
sI1769
Vginni
p1758
sI1770
Vorion,
p1759
sI1771
Vignacius,
p1760
sI1772
Vstephani,
p1761
sI1773
Vletta
p1762
sI1774
Vquillan
p1763
sI1775
Vfranklyn
p1764
sI1776
Vexercise
p1765
sI1777
Vpeggi
p1766
sI1778
S'lee'
p1767
sI1779
Vrosella
p1768
sI1780
Vlaraine
p1769
sI1781
Vlet
p1770
sI1782
Varyn,
p1771
sI1783
Vluis
p1772
sI1784
S'safer'
p1773
sI1785
Vfifteen
p1774
sI1786
Vjakob,
p1775
sI1787
Vgrethel,
p1776
sI1788
Velnora
p1777
sI1789
Vvickie,
p1778
sI1790
Vwaylin,
p1779
sI1791
Vammamaria,
p1780
sI1792
Vbearnard,
p1781
sI1793
Vmicky,
p1782
sI1794
Vmirella,
p1783
sI1795
Vderby
p1784
sI1796
Vkaspar,
p1785
sI1797
Vleighton,
p1786
sI1798
Vmanny
p1787
sI1799
Verastus
p1788
sI1800
Vjoceline,
p1789
sI1801
Vdeny,
p1790
sI1802
Vgera
p1791
sI1803
Vfrom
p1792
sI1804
Vjeromy,
p1793
sI1805
Vninetta
p1794
sI1806
S'next'
p1795
sI1807
Veleven
p1796
sI1808
Vemeline
p1797
sI1809
Vlucas,
p1798
sI1810
Vdenys
p1799
sI1811
Von
p1800
sI1812
Vcorey,
p1801
sI1813
Vdidn't
p1802
sI1814
Vcrissie
p1803
sI1815
Vthatch
p1804
sI1816
Vconnie
p1805
sI1817
S'this'
p1806
sI1818
Valia
p1807
sI1819
Vram
p1808
sI1820
Valix
p1809
sI1821
Vemerson
p1810
sI1822
Vethelin,
p1811
sI1823
Vterrie,
p1812
sI1824
Vwalter,
p1813
sI1825
Verda,
p1814
sI1826
Vetta
p1815
sI1827
Vkyrstin,
p1816
sI1828
Vgeorgeta,
p1817
sI1829
Vetty
p1818
sI1830
Vtab
p1819
sI1831
Vmilicent
p1820
sI1832
Vtam
p1821
sI1833
Vjehu
p1822
sI1834
Vpadraig,
p1823
sI1835
Vlenore
p1824
sI1836
Vbernadene
p1825
sI1837
Vkial
p1826
sI1838
Vkiah
p1827
sI1839
Vquincey,
p1828
sI1840
Vsix
p1829
sI1841
Vpepillo
p1830
sI1842
Vcamille
p1831
sI1843
Vsib
p1832
sI1844
Vsig
p1833
sI1845
Vmartin,
p1834
sI1846
Vclair,
p1835
sI1847
Vreynold,
p1836
sI1848
Vpepi,
p1837
sI1849
Vfran
p1838
sI1850
Vkristel
p1839
sI1851
Vkristen,
p1840
sI1852
Vronald
p1841
sI1853
Vkenn,
p1842
sI1854
Vstandford
p1843
sI1855
Vdaloris,
p1844
sI1856
Verika
p1845
sI1857
Vbevvy
p1846
sI1858
Vemelda
p1847
sI1859
Varvy,
p1848
sI1860
Vignaz,
p1849
sI1861
S'bouverie'
p1850
sI1862
Vmartina
p1851
sI1863
Vemeline,
p1852
sI1864
Vissy
p1853
sI1865
Vchristie,
p1854
sI1866
Vclarissa
p1855
sI1867
Vricard
p1856
sI1868
Vclarisse
p1857
sI1869
Vmoria
p1858
sI1870
Vbinny,
p1859
sI1871
Vrutter
p1860
sI1872
Vjoanne
p1861
sI1873
Vedith,
p1862
sI1874
Vdaren,
p1863
sI1875
S'agricultural'
p1864
sI1876
Vworthington
p1865
sI1877
S'1'
sI1878
Vtonia,
p1866
sI1879
Vantonius
p1867
sI1880
S'biomedical'
p1868
sI1881
Vguillemette,
p1869
sI1882
Vrabi
p1870
sI1883
Vdorothy,
p1871
sI1884
Vweber
p1872
sI1885
Vselma,
p1873
sI1886
Vfreeman
p1874
sI1887
Vevelyn,
p1875
sI1888
S'practice'
p1876
sI1889
S'newman'
p1877
sI1890
Vnady
p1878
sI1891
Vrori,
p1879
sI1892
Vday
p1880
sI1893
Vbilli
p1881
sI1894
S'february'
p1882
sI1895
Vdanyette
p1883
sI1896
Vwilone,
p1884
sI1897
S'university'
p1885
sI1898
Vboyd,
p1886
sI1899
Vkissiah,
p1887
sI1900
Vstandford,
p1888
sI1901
Vtray
p1889
sI1902
Vquintin
p1890
sI1903
Vjean-lou
p1891
sI1904
Vkatlin,
p1892
sI1905
Vkinna,
p1893
sI1906
Vteodoor
p1894
sI1907
Vfran,
p1895
sI1908
Vtull,
p1896
sI1909
Vmeta
p1897
sI1910
Vthirteen
p1898
sI1911
Vbrodie
p1899
sI1912
Vmorton
p1900
sI1913
S'sexual'
p1901
sI1914
Vshannon
p1902
sI1915
Vrod,
p1903
sI1916
Vbutch
p1904
sI1917
Vmerola,
p1905
sI1918
Viseabal,
p1906
sI1919
Vreboot
p1907
sI1920
Vbancroft,
p1908
sI1921
Vhervey,
p1909
sI1922
Vmarcel,
p1910
sI1923
Vdanie
p1911
sI1924
S'lecture'
p1912
sI1925
Vallie,
p1913
sI1926
Vletta,
p1914
sI1927
Vricki
p1915
sI1928
S'harold'
p1916
sI1929
Vgonzalo
p1917
sI1930
Vharriett
p1918
sI1931
Vallis,
p1919
sI1932
Vlorelle
p1920
sI1933
Vfourteen
p1921
sI1934
Vjill
p1922
sI1935
Vashleigh,
p1923
sI1936
Venrica,
p1924
sI1937
Vberchtold,
p1925
sI1938
Vjoceline
p1926
sI1939
Vdavie
p1927
sI1940
Vberkley,
p1928
sI1941
Vlindsy
p1929
sI1942
Vadrian
p1930
sI1943
Vcherida
p1931
sI1944
Vdani,
p1932
sI1945
Vdonetta,
p1933
sI1946
Vlurleen,
p1934
sI1947
Vcy,
p1935
sI1948
Vkittie,
p1936
sI1949
S'management'
p1937
sI1950
Vkimberley,
p1938
sI1951
Vkathy,
p1939
sI1952
Vgerold
p1940
sI1953
Vsystem
p1941
sI1954
Velric
p1942
sI1955
Vmarylin
p1943
sI1956
Vallis
p1944
sI1957
Vsansone
p1945
sI1958
Vximenez,
p1946
sI1959
Vkendal,
p1947
sI1960
Vjustin,
p1948
sI1961
Vmellisa,
p1949
sI1962
Vjule
p1950
sI1963
Vwoodie
p1951
sI1964
Vsebastiano,
p1952
sI1965
Vmegan
p1953
sI1966
Vtymon
p1954
sI1967
Vgodfry
p1955
sI1968
S'july'
p1956
sI1969
Vcharmian
p1957
sI1970
Vmelvyn,
p1958
sI1971
S'eyecare'
p1959
sI1972
Vbard
p1960
sI1973
Vkiah,
p1961
sI1974
Vgerold,
p1962
sI1975
Veugenie,
p1963
sI1976
Vkellen
p1964
sI1977
Vbertha
p1965
sI1978
Vjacquelyn
p1966
sI1979
Vhave
p1967
sI1980
Vneed
p1968
sI1981
S'redmond'
p1969
sI1982
Vwilfred,
p1970
sI1983
Vromonda,
p1971
sI1984
Vshandee
p1972
sI1985
Vmalena,
p1973
sI1986
Vstanfield
p1974
sI1987
Vlenee
p1975
sI1988
Vdallas
p1976
sI1989
S'babel'
p1977
sI1990
Vchantal,
p1978
sI1991
Vroddie,
p1979
sI1992
Vbaird
p1980
sI1993
Vkelsi,
p1981
sI1994
Vjean-christophe
p1982
sI1995
Vlulita,
p1983
sI1996
S'optometry'
p1984
sI1997
Vmarianna,
p1985
sI1998
S'centre'
p1986
sI1999
Vflorette,
p1987
sI2000
Vrodger,
p1988
sI2001
Vrorie,
p1989
sI2002
Veight
p1990
sI2003
Vtab,
p1991
sI2004
Vcrysta
p1992
sI2005
Vwake,
p1993
sI2006
Vpembroke
p1994
sI2007
Vdeny
p1995
sI2008
Vabelard,
p1996
sI2009
Vnoam,
p1997
sI2010
Vtremayne
p1998
sI2011
Vclaudina
p1999
sI2012
Vjohnathon,
p2000
sI2013
Vmissy,
p2001
sI2014
Vdena
p2002
sI2015
Vluis,
p2003
sI2016
Vwaverley
p2004
sI2017
Vchancey
p2005
sI2018
Vdorothy
p2006
sI2019
Vbobine
p2007
sI2020
Vmugsy
p2008
sI2021
Veda
p2009
sI2022
Vperla
p2010
sI2023
Vclayborn,
p2011
sI2024
Vgladys,
p2012
sI2025
Vjan
p2013
sI2026
Vgus,
p2014
sI2027
Vsybil,
p2015
sI2028
Vmillisent,
p2016
sI2029
Vboris
p2017
sI2030
Vcaroljean,
p2018
sI2031
Vlistened
p2019
sI2032
Vsilas
p2020
sI2033
Vperla,
p2021
sI2034
Vstavros
p2022
sI2035
Vgrethel
p2023
sI2036
Vkatharina
p2024
sI2037
Valeck
p2025
sI2038
Vcherry,
p2026
sI2039
Vlurette
p2027
sI2040
Vjaime
p2028
sI2041
Vmariette,
p2029
sI2042
Vgoddard
p2030
sI2043
Vtrixi
p2031
sI2044
Vrobinett,
p2032
sI2045
Vdevora
p2033
sI2046
Vmelvyn
p2034
sI2047
Vcarey,
p2035
sI2048
Vram,
p2036
sI2049
Vlulu,
p2037
sI2050
Vstate
p2038
sI2051
Vashleigh
p2039
sI2052
Vmart,
p2040
sI2053
Vharvie,
p2041
sI2054
Vjenica
p2042
sI2055
Vjoya
p2043
sI2056
Vsharity,
p2044
sI2057
Vnickie,
p2045
sI2058
Vmadelyn
p2046
sI2059
Vmada,
p2047
sI2060
Vken
p2048
sI2061
Vends
p2049
sI2062
Vjennilee,
p2050
sI2063
Vclint,
p2051
sI2064
Vaddie
p2052
sI2065
Vmelloney
p2053
sI2066
Vromona,
p2054
sI2067
Vbelinda
p2055
sI2068
Vamalia
p2056
sI2069
Vcliff,
p2057
sI2070
Vselena
p2058
sI2071
Vcory,
p2059
sI2072
Vleigh,
p2060
sI2073
Vlegra,
p2061
sI2074
Vorelia
p2062
sI2075
Vtammi,
p2063
sI2076
S'april'
p2064
sI2077
Vmaggy
p2065
sI2078
Vconstantine
p2066
sI2079
Vpaolina
p2067
sI2080
Vali,
p2068
sI2081
Vsinclare,
p2069
sI2082
S'tuesday'
p2070
sI2083
Vharmonie
p2071
sI2084
Vlorrin
p2072
sI2085
Vcy
p2073
sI2086
Volia,
p2074
sI2087
Vwildon,
p2075
sI2088
Vheloise
p2076
sI2089
Vjenica,
p2077
sI2090
Vreta,
p2078
sI2091
Vit's
p2079
sI2092
Vdarrel
p2080
sI2093
Vvick,
p2081
sI2094
Vnellie
p2082
sI2095
Vedythe,
p2083
sI2096
Vlucita
p2084
sI2097
Vkirstie,
p2085
sI2098
S'bbq'
p2086
sI2099
Vsybilla,
p2087
sI2100
Vtray,
p2088
sI2101
Vfinishes
p2089
sI2102
Vdelinda,
p2090
sI2103
Vquintin,
p2091
sI2104
Vdevinne,
p2092
sI2105
Vchantalle,
p2093
sI2106
Vflorian
p2094
sI2107
Vkeren
p2095
sI2108
Vdevinne
p2096
sI2109
S'general'
p2097
sI2110
S'agaust'
p2098
sI2111
Vatlante
p2099
sI2112
Volenka,
p2100
sI2113
Vbradly
p2101
sI2114
Vlanna
p2102
sI2115
Vlanni
p2103
sI2116
Vaugusta
p2104
sI2117
Vwill
p2105
sI2118
Vcarole
p2106
sI2119
Vcrissy,
p2107
sI2120
Vsebastien
p2108
sI2121
Vmaynord
p2109
sI2122
Vvi
p2110
sI2123
Vjennette,
p2111
sI2124
Vguillemette
p2112
sI2125
Vlanna,
p2113
sI2126
Vbradly,
p2114
sI2127
Vrosalynd,
p2115
sI2128
Vlazlo,
p2116
sI2129
Vbobette,
p2117
sI2130
Vparty
p2118
sI2131
Vsolange
p2119
sI2132
Veugenie
p2120
sI2133
Vsib,
p2121
sI2134
Vgenny
p2122
sI2135
Vcarlie,
p2123
sI2136
S'raymond'
p2124
sI2137
Vberty,
p2125
sI2138
Vneville,
p2126
sI2139
Viago
p2127
sI2140
Vchristofer
p2128
sI2141
Vsolange,
p2129
sI2142
S'student'
p2130
sI2143
Vpaula,
p2131
sI2144
Varabel,
p2132
sI2145
Vkimberley
p2133
sI2146
Voff
p2134
sI2147
Vantonie
p2135
sI2148
Vi
sI2149
Vharmonie,
p2136
sI2150
Voneida
p2137
sI2151
S'biosciences'
p2138
sI2152
Velene,
p2139
sI2153
Vperceval,
p2140
sI2154
Vignatius
p2141
sI2155
Vcarrie
p2142
sI2156
Vgeorgeta
p2143
sI2157
Vcrista
p2144
sI2158
Vkyrstin
p2145
sI2159
Vnanon
p2146
sI2160
S'clinic'
p2147
sI2161
Vfishing
p2148
sI2162
Vandrzej,
p2149
sI2163
Vlaurel
p2150
sI2164
Vermina,
p2151
sI2165
Vdenys,
p2152
sI2166
Vtraci,
p2153
sI2167
Vyonina
p2154
sI2168
Vtruda
p2155
sI2169
Vclyde
p2156
sI2170
Vnoach
p2157
sI2171
Vjohannah
p2158
sI2172
Vgeorge,
p2159
sI2173
Vhomework
p2160
sI2174
Vtymothy,
p2161
sI2175
S'room,'
p2162
sI2176
Vraymund,
p2163
sI2177
Vrosalynd
p2164
sI2178
Vyovonnda,
p2165
sI2179
Vfive
p2166
sI2180
Vknow
p2167
sI2181
Vcoreen
p2168
sI2182
Vhettie
p2169
sI2183
Vroz,
p2170
sI2184
S'lincoln'
p2171
sI2185
Vbernadene,
p2172
sI2186
Vlike
p2173
sI2187
Vberkley
p2174
sI2188
Vetty,
p2175
sI2189
Vrobina,
p2176
sI2190
Vmartin
p2177
sI2191
Vconrad
p2178
sI2192
Vemmy
p2179
sI2193
Vlilias
p2180
sI2194
Vlora,
p2181
sI2195
Vbela,
p2182
sI2196
Vhalimeda,
p2183
sI2197
Vdelinda
p2184
sI2198
S'library'
p2185
sI2199
Vizaak,
p2186
sI2200
S'peter'
p2187
sI2201
Vlucita,
p2188
sI2202
Vkristel,
p2189
sI2203
Vmargarete,
p2190
sI2204
Vcarrie,
p2191
sI2205
Vbrigitta
p2192
sI2206
S'smyth'
p2193
sI2207
S'murdoch'
p2194
sI2208
Vnettie,
p2195
sI2209
Vjaime,
p2196
sI2210
Vshina,
p2197
sI2211
Vemmalynn
p2198
sI2212
Vnixie,
p2199
sI2213
Vcarlyle,
p2200
sI2214
Vcarree,
p2201
sI2215
Vanselm
p2202
sI2216
Volia
p2203
sI2217
Vjustin
p2204
sI2218
Vdorolice
p2205
sI2219
Vtomi
p2206
sI2220
Vtoma
p2207
sI2221
Vtome
p2208
sI2222
Varne,
p2209
sI2223
Vteodoor,
p2210
sI2224
Valex,
p2211
sI2225
Vgusella
p2212
sI2226
Vaddie,
p2213
sI2227
Vcalli
p2214
sI2228
Vnancie,
p2215
sI2229
Vkathi,
p2216
sI2230
Velissa,
p2217
sI2231
Vmeira,
p2218
sI2232
Vvan
p2219
sI2233
Vmarna,
p2220
sI2234
Vmanny,
p2221
sI2235
Vthedrick
p2222
sI2236
Vmaggie,
p2223
sI2237
Vcliff
p2224
sI2238
Vflynn
p2225
sI2239
Vlanni,
p2226
sI2240
S'north'
p2227
sI2241
Vrodger
p2228
sI2242
Vmarlow,
p2229
sI2243
Vanne-marie,
p2230
sI2244
Vbrana
p2231
sI2245
Vkizzee
p2232
sI2246
Vhi
p2233
sI2247
Vismail,
p2234
sI2248
Vdore,
p2235
sI2249
Vapollo
p2236
sI2250
Veat
p2237
sI2251
Vcasia,
p2238
sI2252
Vmada
p2239
sI2253
Vwish
p2240
sI2254
Vchancey,
p2241
sI2255
Vbooks
p2242
sI2256
Vdaniel,
p2243
sI2257
Varne
p2244
sI2258
Vrutter,
p2245
sI2259
S'walter'
p2246
sI2260
Vminutes
p2247
sI2261
Voctavius,
p2248
sI2262
Vwaverley,
p2249
sI2263
Vrobinett
p2250
sI2264
Vannabell,
p2251
sI2265
Vhalvard,
p2252
sI2266
Vmilissent
p2253
sI2267
Vkaroly,
p2254
sI2268
Vbelita,
p2255
sI2269
Vbertha,
p2256
sI2270
Vsalvatore,
p2257
sI2271
Veloise,
p2258
sI2272
Vmaiga,
p2259
sI2273
Valeck,
p2260
sI2274
Vamery,
p2261
sI2275
Vsharia
p2262
sI2276
Vedgar,
p2263
sI2277
Vmortimer
p2264
sI2278
Vpatsy
p2265
sI2279
Vjulissa,
p2266
sI2280
Vpacifica
p2267
sI2281
Vbook
p2268
sI2282
Vgustaf,
p2269
sI2283
Vout
p2270
sI2284
Vamalia,
p2271
sI2285
Vcaroleen,
p2272
sI2286
Vbarty
p2273
sI2287
Vtaddeo,
p2274
sI2288
S'monday'
p2275
sI2289
S'june'
p2276
sI2290
Vsilas,
p2277
sI2291
Vlaural,
p2278
sI2292
Vjess,
p2279
sI2293
Vconnie,
p2280
sI2294
Vpembroke,
p2281
sI2295
Vdewey
p2282
sI2296
Vkathi
p2283
sI2297
Voral
p2284
sI2298
Vpatsy,
p2285
sI2299
Vemery
p2286
sI2300
Velaina
p2287
sI2301
Vmaryjo,
p2288
sI2302
Vcarlie
p2289
sI2303
Vkimberlee,
p2290
sI2304
Vcleva
p2291
sI2305
Vcorey
p2292
s(dp2293
g24
I22
sg25
I23
sg27
I25
sg28
I26
sg29
I27
sg30
I28
sg31
I29
sg32
I30
sg33
I31
sg34
I32
sg35
I33
sg79
I77
sg37
I35
sg38
I36
sg39
I37
sg40
I38
sg41
I39
sg42
I40
sg43
I41
sg1549
I1559
sg45
I43
sg46
I44
sg47
I45
sg48
I46
sg49
I47
sg50
I48
sg51
I49
sg1914
I1926
sg53
I51
sg54
I52
sg55
I53
sg14
I12
sg56
I54
sg57
I55
sg58
I56
sg59
I57
sg60
I58
sg61
I59
sg62
I60
sg63
I61
sg64
I62
sg65
I63
sg66
I64
sg67
I65
sg68
I66
sg69
I67
sg70
I68
sg71
I69
sg72
I70
sg73
I71
sg74
I72
sg2
I0
sg75
I73
sg76
I74
sg77
I75
sg78
I76
sg36
I34
sg80
I78
sg81
I79
sg82
I80
sg83
I81
sg84
I82
sg85
I83
sg86
I84
sg87
I85
sg88
I86
sg89
I87
sg90
I88
sg1145
I1150
sg92
I90
sg93
I91
sg94
I92
sg95
I93
sg96
I94
sg97
I95
sg98
I96
sg99
I97
sg100
I98
sg101
I99
sg1197
I1203
sg103
I101
sg104
I102
sg105
I103
sg106
I104
sg107
I105
sg108
I106
sg109
I107
sg110
I108
sg111
I109
sg112
I110
sg113
I111
sg1554
I1564
sg115
I113
sg117
I115
sg118
I116
sg119
I117
sg120
I118
sg121
I119
sg122
I120
sg1925
I1937
sg124
I122
sg125
I123
sg126
I124
sg127
I125
sg128
I126
sg129
I127
sg130
I128
sg131
I129
sg133
I131
sg134
I132
sg135
I133
sg136
I134
sg137
I135
sg138
I136
sg139
I137
sg140
I138
sg141
I139
sg142
I140
sg2274
I2287
sg143
I141
sg144
I142
sg674
I675
sg146
I144
sg147
I145
sg148
I146
sg1927
I1939
sg150
I148
sg151
I149
sg152
I150
sg153
I151
sg154
I152
sg155
I153
sg156
I154
sg157
I155
sg158
I156
sg1556
I1566
sg160
I158
sg161
I159
sg162
I160
sg163
I161
sg164
I162
sg165
I163
sg166
I164
sg167
I165
sg168
I166
sg169
I167
sg170
I168
sg171
I169
sg172
I170
sg173
I171
sg174
I172
sg175
I173
sg176
I174
sg177
I175
sg178
I176
sg179
I177
sg180
I178
sg181
I179
sg182
I180
sg183
I181
sg184
I182
sg185
I183
sg186
I184
sg187
I185
sg188
I186
sg189
I187
sg190
I188
sg191
I189
sg192
I190
sg193
I191
sg3
I1
sg194
I192
sg195
I193
sV,
I194
sg196
I195
sg1708
I1719
sg197
I196
sg198
I197
sg199
I198
sg200
I199
sg201
I200
sg202
I201
sg203
I202
sg204
I203
sg205
I204
sg206
I205
sg207
I206
sg208
I207
sg209
I208
sg2093
I2105
sg210
I209
sg211
I210
sg212
I211
sg213
I212
sg214
I213
sg215
I214
sg216
I215
sg217
I216
sg218
I217
sg219
I218
sg220
I219
sg221
I220
sg222
I221
sg223
I222
sg224
I223
sg225
I224
sg226
I225
sg227
I226
sg228
I227
sg229
I228
sg230
I229
sg231
I230
sg232
I231
sg233
I232
sg234
I233
sg17
I15
sg235
I234
sg236
I235
sg237
I236
sg238
I237
sg239
I238
sg240
I239
sg1938
I1950
sg242
I241
sg243
I242
sg244
I243
sg245
I244
sg246
I245
sg247
I246
sg248
I247
sg249
I248
sg250
I249
sg251
I250
sg252
I251
sg1340
I1348
sg254
I253
sg255
I254
sg256
I255
sg257
I256
sg1170
I1176
sg259
I258
sg260
I259
sg261
I260
sg262
I261
sg263
I262
sg264
I263
sg265
I264
sg442
I443
sg267
I266
sg268
I267
sg269
I268
sg270
I269
sg271
I270
sg2271
I2284
sg272
I271
sg273
I272
sg274
I273
sg275
I274
sg276
I275
sg277
I276
sg278
I277
sg279
I278
sg280
I279
sg281
I280
sg282
I281
sg283
I282
sg284
I283
sg285
I284
sg286
I285
sg287
I286
sg288
I287
sg289
I288
sg1951
I1963
sS'-'
I290
sg2126
I2138
sg291
I291
sg292
I292
sg293
I293
sg811
I813
sg295
I295
sg296
I296
sg297
I297
sg1952
I1964
sg299
I299
sg300
I300
sg301
I301
sg302
I302
sg303
I303
sg304
I304
sg305
I305
sg306
I306
sg307
I307
sg308
I308
sg309
I309
sg310
I310
sg311
I311
sg312
I312
sg1263
I1270
sg314
I314
sg315
I315
sg316
I316
sg317
I317
sg318
I318
sg319
I319
sg320
I320
sg8
I6
sg321
I321
sg322
I322
sg323
I323
sg324
I324
sg325
I325
sg326
I326
sg327
I327
sg328
I328
sg329
I329
sg330
I330
sg331
I331
sg332
I332
sg333
I333
sg334
I334
sg335
I335
sg336
I336
sg953
I956
sg337
I337
sg338
I338
sg339
I339
sg340
I340
sg341
I341
sg342
I342
sg343
I343
sg817
I819
sg345
I345
sg1185
I1191
sg347
I347
sg348
I348
sg2087
I2099
sg349
I349
sg350
I350
sg822
I824
sg352
I352
sg353
I353
sg354
I354
sg833
I835
sg356
I356
sg357
I357
sg2021
I2033
sg358
I358
sg359
I359
sg360
I360
sg361
I361
sg362
I362
sg363
I363
sg364
I364
sg1267
I1274
sg366
I366
sg1959
I1971
sg367
I367
sg368
I368
sg369
I369
sg370
I370
sg1189
I1195
sg372
I372
sg16
I14
sg374
I374
sg375
I375
sg376
I376
sg377
I377
sg378
I378
sg379
I379
sg380
I380
sg381
I381
sg382
I382
sg383
I383
sg384
I384
sg385
I385
sg386
I386
sg387
I387
sg388
I388
sg389
I389
sV.
I390
sg390
I391
sg391
I392
sg392
I393
sg393
I394
sg1964
I1976
sg394
I395
sg395
I396
sg396
I397
sg397
I398
sg398
I399
sg399
I400
sg400
I401
sg401
I402
sg402
I403
sg403
I404
sg404
I405
sg405
I406
sg406
I407
sg407
I408
sg408
I409
sg409
I410
sg410
I411
sg411
I412
sg412
I413
sg413
I414
sg414
I415
sg415
I416
sg416
I417
sg417
I418
sg1271
I1279
sg419
I420
sg420
I421
sg421
I422
sg422
I423
sg423
I424
sg424
I425
sg425
I426
sg426
I427
sg427
I428
sg428
I429
sg429
I430
sg430
I431
sg431
I432
sg432
I433
sg433
I434
sg434
I435
sg435
I436
sg436
I437
sg437
I438
sg438
I439
sg439
I440
sg440
I441
sg441
I442
sg891
I894
sg443
I444
sg444
I445
sg445
I446
sg446
I447
sg447
I448
sg448
I449
sg449
I450
sg1611
I1622
sg451
I452
sg452
I453
sg453
I454
sg454
I455
sg455
I456
sg456
I457
sg457
I458
sg458
I459
sg459
I460
sg460
I461
sg461
I462
sg845
I847
sg463
I464
sg464
I465
sg465
I466
sg466
I467
sg467
I468
sg468
I469
sg469
I470
sg470
I471
sg471
I472
sg472
I473
sg473
I474
sg9
I7
sg475
I476
sg476
I477
sg477
I478
sg478
I479
sg479
I480
sg481
I482
sg849
I851
sg483
I484
sg484
I485
sg485
I486
sg486
I487
sg487
I488
sg790
I791
sg102
I100
sg489
I490
sg490
I491
sg491
I492
sg492
I493
sg851
I853
sg494
I495
sg495
I496
sg496
I497
sg497
I498
sg498
I499
sg499
I500
sg500
I501
sg1210
I1216
sg502
I503
sg599
I600
sg504
I505
sg505
I506
sg506
I507
sg507
I508
sg508
I509
sg509
I510
sg510
I511
sg511
I512
sg512
I513
sg1211
I1217
sg514
I515
sg662
I663
sg516
I517
sg688
I689
sg694
I695
sg519
I520
sg520
I521
sg488
I489
sg522
I523
sg523
I524
sg524
I525
sg525
I526
sg526
I527
sg527
I528
sg528
I529
sg529
I530
sg530
I531
sg531
I532
sg532
I533
sg533
I534
sg534
I535
sg535
I536
sg536
I537
sg537
I538
sg19
I17
sg538
I539
sg802
I803
sg540
I541
sg541
I542
sg542
I543
sg543
I544
sg839
I841
sg545
I546
sg1628
I1639
sg547
I548
sg548
I549
sg549
I550
sg550
I551
sg551
I552
sg552
I553
sg553
I554
sg554
I555
sg885
I888
sg556
I557
sg557
I558
sg558
I559
sg559
I560
sg560
I561
sg561
I562
sg562
I563
sg563
I564
sg859
I861
sg565
I566
sg566
I567
sg567
I568
sg568
I569
sg569
I570
sg570
I571
sg571
I572
sg994
I997
sg573
I574
sg574
I575
sg575
I576
sg1025
I1029
sg1050
I1054
sg578
I579
sg1059
I1063
sg580
I581
sg581
I582
sg582
I583
sg583
I584
sg584
I585
sg1118
I1123
sg586
I587
sg587
I588
sg588
I589
sg590
I591
sg591
I592
sg592
I593
sg593
I594
sg594
I595
sg595
I596
sg596
I597
sg597
I598
sg598
I599
sg503
I504
sg600
I601
sg1227
I1234
sg602
I603
sg603
I604
sg604
I605
sg605
I606
sg606
I607
sg607
I608
sg608
I609
sg609
I610
sg610
I611
sg611
I612
sg612
I613
sg1232
I1239
sg614
I615
sg615
I616
sg616
I617
sg617
I618
sg618
I619
sg619
I620
sg620
I621
sg621
I622
sg622
I623
sg623
I624
sg624
I625
sg625
I626
sg626
I627
sg627
I628
sg628
I629
sg629
I630
sg630
I631
sg631
I632
sg632
I633
sg1645
I1656
sg634
I635
sg956
I959
sg636
I637
sg637
I638
sg638
I639
sg639
I640
sg640
I641
sg641
I642
sg642
I643
sg643
I644
sg644
I645
sg645
I646
sg646
I647
sg647
I648
sg648
I649
sg649
I650
sg650
I651
sg651
I652
sg652
I653
sg653
I654
sg654
I655
sg655
I656
sg656
I657
sg657
I658
sg658
I659
sg659
I660
sg660
I661
sg871
I874
sg515
I516
sg663
I664
sg664
I665
sg665
I666
sg666
I667
sg667
I668
sg668
I669
sg669
I670
sg670
I671
sg671
I672
sg672
I673
sg673
I674
sg145
I143
sg675
I676
sg676
I677
sg677
I678
sg678
I679
sg679
I680
sg680
I681
sg681
I682
sg682
I683
sg683
I684
sg684
I685
sg685
I686
sg18
I16
sg687
I688
sg517
I518
sg689
I690
sg690
I691
sg692
I693
sg693
I694
sg518
I519
sg695
I696
sg696
I697
sg697
I698
sg698
I699
sg699
I700
sg700
I701
sg701
I702
sg702
I703
sg703
I704
sg704
I705
sg705
I706
sg706
I707
sg707
I708
sg708
I709
sg1656
I1667
sg710
I711
sg711
I712
sg712
I713
sg521
I522
sg713
I714
sg714
I715
sg715
I716
sg717
I718
sg718
I719
sg719
I720
sg720
I721
sg721
I722
sg2064
I2076
sg722
I723
sg723
I724
sg724
I725
sg725
I726
sg726
I727
sg727
I728
sg728
I729
sg729
I730
sg730
I731
sg731
I732
sg732
I733
sg733
I734
sg734
I735
sg735
I736
sg736
I737
sg737
I738
sg738
I739
sg739
I740
sg740
I741
sg741
I742
sg742
I743
sg743
I744
sg744
I745
sg745
I746
sg746
I747
sg747
I748
sg748
I749
sg749
I750
sg750
I751
sg751
I752
sg752
I753
sg753
I754
sg754
I755
sg1259
I1266
sg757
I758
sg758
I759
sg759
I760
sg760
I761
sg761
I762
sg762
I763
sg763
I764
sg764
I765
sg765
I766
sg766
I767
sg767
I768
sg768
I769
sg769
I770
sg770
I771
sg772
I773
sg773
I774
sg2189
I2202
sg774
I775
sg775
I776
sg776
I777
sg777
I778
sg778
I779
sg779
I780
sg780
I781
sg781
I782
sg782
I783
sg783
I784
sg784
I785
sg785
I786
sg786
I787
sg787
I788
sg788
I789
sg789
I790
sg1281
I1289
sg791
I792
sg792
I793
sg365
I365
sg794
I795
sg11
I9
sg795
I796
sg796
I797
sg797
I798
sg798
I799
sg799
I800
sg800
I801
sg801
I802
sg539
I540
sg803
I804
sg804
I805
sS'2'
I806
sg805
I807
sg806
I808
sg807
I809
sg808
I810
sg809
I811
sg810
I812
sg294
I294
sg812
I814
sg813
I815
sg814
I816
sg815
I817
sg816
I818
sg344
I344
sg818
I820
sg819
I821
sg820
I822
sg821
I823
sg351
I351
sg823
I825
sg824
I826
sg825
I827
sg826
I828
sg827
I829
sg828
I830
sg1775
I1786
sg829
I831
sg830
I832
sg831
I833
sg832
I834
sg834
I836
sg835
I837
sg836
I838
sg837
I839
sg838
I840
sg544
I545
sg840
I842
sg841
I843
sg842
I844
sg21
I19
sg843
I845
sg1672
I1683
sg462
I463
sg846
I848
sg847
I849
sg2031
I2043
sg482
I483
sg850
I852
sg493
I494
sg852
I854
sg853
I855
sg23
I21
sg854
I856
sg855
I857
sg856
I858
sg857
I859
sg858
I860
sg564
I565
sg860
I862
sg861
I863
sg862
I864
sg863
I865
sg864
I866
sg866
I868
sg867
I869
sg868
I870
sg869
I871
sg870
I872
sS'3'
I873
sg661
I662
sg872
I875
sg873
I876
sg874
I877
sg875
I878
sg876
I879
sg877
I880
sg878
I881
sg879
I882
sg880
I883
sg881
I884
sg882
I885
sg884
I887
sg555
I556
sg886
I889
sg887
I890
sg2044
I2056
sg889
I892
sg890
I893
sg978
I981
sg892
I895
sg893
I896
sg894
I897
sg895
I898
sg896
I899
sg897
I900
sg898
I901
sg899
I902
sg900
I903
sg901
I904
sg902
I905
sg903
I906
sg904
I907
sg905
I908
sg906
I909
sg907
I910
sg908
I911
sg909
I912
sg910
I913
sg911
I914
sg912
I915
sg913
I916
sg918
I921
sg915
I918
sg916
I919
sg917
I920
sg914
I917
sg1294
I1302
sg1295
I1303
sg921
I924
sg922
I925
sg923
I926
sg924
I927
sg925
I928
sg920
I923
sg991
I994
sg1300
I1308
sg928
I931
sg929
I932
sg12
I10
sg931
I934
sg1020
I1024
sg933
I936
sg935
I938
sg936
I939
sg937
I940
sg938
I941
sg939
I942
sg940
I943
sg941
I944
sg942
I945
sg943
I946
sg944
I947
sg2056
I2068
sg945
I948
sg946
I949
sg947
I950
sg948
I951
sg949
I952
sg950
I953
sg951
I954
sg952
I955
sg1108
I1112
sg954
I957
sg955
I958
sg957
I960
sg958
I961
sg2063
I2075
sg959
I962
sg960
I963
sg1688
I1699
sg2062
I2074
sg963
I966
sg964
I967
sg965
I968
sg966
I969
sg967
I970
sg968
I971
sg969
I972
sg970
I973
sg1690
I1701
sg973
I976
sg974
I977
sg2118
I2130
sg975
I978
sg1276
I1284
sg977
I980
sg1290
I1298
sg979
I982
sg980
I983
sg981
I984
sg982
I985
sg983
I986
sg984
I987
sg985
I988
sg986
I989
sg1312
I1320
sg988
I991
sg989
I992
sg990
I993
sg926
I929
sg992
I995
sg993
I996
sg572
I573
sg995
I998
sg996
I999
sg997
I1000
sg998
I1001
sg999
I1002
sg22
I20
sg1000
I1003
sg1001
I1004
sg1317
I1325
sg1003
I1006
sg1004
I1007
sg1005
I1008
sg1006
I1009
sg1007
I1010
sg1008
I1011
sg930
I933
sg1010
I1013
sg1011
I1014
sg1012
I1015
sg2069
I2081
sS'4'
I1017
sg1014
I1018
sg1015
I1019
sg1016
I1020
sg1017
I1021
sg1018
I1022
sg1019
I1023
sg1021
I1025
sg1022
I1026
sg1023
I1027
sg1024
I1028
sg576
I577
sg1026
I1030
sg1027
I1031
sg1028
I1032
sg1029
I1033
sg1030
I1034
sg1031
I1035
sg1032
I1036
sg1033
I1037
sg1034
I1038
sg1035
I1039
sg1036
I1040
sg1037
I1041
sg1038
I1042
sg1039
I1043
sg1040
I1044
sg1041
I1045
sg1042
I1046
sg1043
I1047
sg1044
I1048
sg1045
I1049
sg1046
I1050
sg1047
I1051
sg1048
I1052
sg577
I578
sg1051
I1055
sg1052
I1056
sg1053
I1057
sg1054
I1058
sg1055
I1059
sg1056
I1060
sg1057
I1061
sg1058
I1062
sg579
I580
sg1060
I1064
sg1061
I1065
sg1062
I1066
sg1063
I1067
sg1064
I1068
sg2110
I2122
sg1065
I1069
sg1066
I1070
sg1067
I1071
sg1068
I1072
sg1069
I1073
sg1070
I1074
sg1071
I1075
sg1072
I1076
sg1073
I1077
sg1074
I1078
sg1075
I1079
sg1076
I1080
sg1077
I1081
sg1078
I1082
sg1079
I1083
sg1080
I1084
sg1081
I1085
sg1082
I1086
sg1083
I1087
sg1084
I1088
sg1530
I1540
sg1085
I1089
sg1086
I1090
sg1087
I1091
sg1088
I1092
sg1089
I1093
sg1090
I1094
sg1091
I1095
sg1092
I1096
sg1093
I1097
sg1094
I1098
sg1095
I1099
sg1096
I1100
sg132
I130
sg1098
I1102
sg1099
I1103
sg1100
I1104
sg1101
I1105
sg1102
I1106
sg1684
I1695
sg1103
I1107
sg1104
I1108
sg1105
I1109
sg1106
I1110
sg1107
I1111
sg2089
I2101
sg1109
I1113
sg1110
I1114
sg1111
I1115
sg1112
I1116
sg1113
I1117
sg1114
I1118
sS'5'
I1119
sg1115
I1120
sg1116
I1121
sg13
I11
sg1117
I1122
sg585
I586
sg1119
I1124
sg2091
I2103
sg1120
I1125
sg1121
I1126
sg1122
I1127
sg2092
I2104
sg1124
I1129
sg1125
I1130
sg1126
I1131
sg1127
I1132
sg1128
I1133
sg1129
I1134
sg1130
I1135
sg1131
I1136
sg1132
I1137
sg1133
I1138
sg1134
I1139
sg1135
I1140
sg1136
I1141
sg1137
I1142
sg1138
I1143
sg1139
I1144
sg1140
I1145
sg1141
I1146
sg1142
I1147
sg1143
I1148
sg1144
I1149
sg91
I89
sg1146
I1151
sg1147
I1152
sg1148
I1153
sg1149
I1154
sg1150
I1155
sg1151
I1156
sg1152
I1157
sg1614
I1625
sg2101
I2113
sg1345
I1353
sg1153
I1159
sg1154
I1160
sg1155
I1161
sg1156
I1162
sg1157
I1163
sg1158
I1164
sg1159
I1165
sg1160
I1166
sg1161
I1167
sg1162
I1168
sg1163
I1169
sg1164
I1170
sg1165
I1171
sg1166
I1172
sg1167
I1173
sg1168
I1174
sg1169
I1175
sg258
I257
sg1171
I1177
sg1173
I1179
sg1174
I1180
sg1175
I1181
sg1176
I1182
sg1177
I1183
sg1178
I1184
sg1179
I1185
sg1180
I1186
sg1181
I1187
sg1182
I1188
sg1183
I1189
sg2199
I2212
sg1184
I1190
sg346
I346
sg1186
I1192
sg1187
I1193
sg1188
I1194
sg371
I371
sg1190
I1196
sg1191
I1197
sg1192
I1198
sg1193
I1199
sg1194
I1200
sg1195
I1201
sg1196
I1202
sg1634
I1645
sg1198
I1204
sg1199
I1205
sg1200
I1206
sg1201
I1207
sg1202
I1208
sg1203
I1209
sg1204
I1210
sg1205
I1211
sg1206
I1212
sg1712
I1723
sg1207
I1213
sg1208
I1214
sg1209
I1215
sg501
I502
sg513
I514
sg1212
I1218
sg1213
I1219
sg1214
I1220
sg1215
I1221
sg1216
I1222
sg1217
I1223
sS'6'
I1225
sg2160
I2173
sg1219
I1226
sg1220
I1227
sg1221
I1228
sg1222
I1229
sg1223
I1230
sg1224
I1231
sg1225
I1232
sg1226
I1233
sg601
I602
sg1228
I1235
sg1229
I1236
sg1230
I1237
sg1231
I1238
sg613
I614
sg1233
I1240
sg1234
I1241
sg1235
I1242
sg1236
I1243
sg1237
I1244
sg1238
I1245
sg1239
I1246
sg1240
I1247
sg1241
I1248
sg1733
I1744
sg1243
I1250
sg1958
I1970
sg1244
I1251
sg1245
I1252
sg1246
I1253
sg2114
I2126
sg1248
I1255
sg1249
I1256
sg1250
I1257
sg1251
I1258
sg1252
I1259
sg1253
I1260
sg1255
I1262
sg1256
I1263
sg1257
I1264
sg1258
I1265
sg2227
I2240
sg755
I756
sg1260
I1267
sg1261
I1268
sg1262
I1269
sg2149
I2162
sg1264
I1271
sg1265
I1272
sg1266
I1273
sg793
I794
sg1268
I1275
sg1269
I1276
sg1270
I1277
sVa
I1278
sg1272
I1280
sg1273
I1281
sg1274
I1282
sg1275
I1283
sg976
I979
sg1278
I1286
sg1279
I1287
sg1280
I1288
sg1282
I1290
sg1283
I1291
sg1284
I1292
sg1285
I1293
sg1286
I1294
sg1287
I1295
sg1288
I1296
sg1289
I1297
sg1291
I1299
sg1292
I1300
sg1293
I1301
sg919
I922
sg771
I772
sg1296
I1304
sg1297
I1305
sg1298
I1306
sg1299
I1307
sg927
I930
sg1301
I1309
sg1302
I1310
sg1303
I1311
sg1304
I1312
sg1305
I1313
sg1306
I1314
sg1307
I1315
sg1308
I1316
sg1309
I1317
sg1310
I1318
sg1311
I1319
sg987
I990
sg1313
I1321
sg1314
I1322
sg1315
I1323
sg1316
I1324
sg1002
I1005
sg1318
I1326
sg1319
I1327
sg1320
I1328
sg932
I935
sg1321
I1329
sg1322
I1330
sg1323
I1331
sg2121
I2133
sg1325
I1333
sg1326
I1334
sg1327
I1335
sg1328
I1336
sg1330
I1338
sg1331
I1339
sg1332
I1340
sg1333
I1341
sg1334
I1342
sg1335
I1343
sg1336
I1344
sg1337
I1345
sg1338
I1346
sg253
I252
sg1341
I1349
sg1342
I1350
sg1343
I1351
sg1344
I1352
sS'7'
I1158
sg1346
I1354
sg1347
I1355
sg1348
I1356
sg1349
I1357
sg1350
I1358
sg1351
I1359
sg1352
I1360
sg1353
I1361
sg1354
I1362
sg1355
I1363
sg1356
I1364
sg1357
I1365
sg1358
I1366
sg1359
I1367
sg1360
I1368
sg1361
I1369
sg1362
I1370
sg1363
I1371
sg1364
I1372
sg1365
I1373
sg1366
I1374
sg1367
I1375
sg1368
I1376
sg1369
I1377
sg1370
I1378
sg1371
I1379
sg1372
I1380
sg1373
I1381
sg1374
I1382
sg1375
I1383
sg1376
I1384
sg1377
I1385
sg2122
I2134
sg1378
I1386
sg1379
I1387
sg1380
I1388
sg1381
I1389
sg1753
I1764
sg20
I18
sg1383
I1391
sg1384
I1392
sg1385
I1393
sg2135
I2147
sg1387
I1395
sg1388
I1396
sg1389
I1397
sg1390
I1398
sg1391
I1399
sg1392
I1400
sg1393
I1401
sg1394
I1402
sg1395
I1403
sg1396
I1404
sg1397
I1405
sg1398
I1406
sg1399
I1407
sg1400
I1408
sg1401
I1409
sg1402
I1410
sg1403
I1411
sg1404
I1412
sg1405
I1413
sg1406
I1414
sg1407
I1415
sg1408
I1416
sg1409
I1417
sg1410
I1418
sg1411
I1419
sg1412
I1420
sg1413
I1421
sg1414
I1422
sg1415
I1423
sg1416
I1424
sg1417
I1425
sg1418
I1426
sg1419
I1427
sg1420
I1428
sg1421
I1429
sg1422
I1430
sg1423
I1431
sg1424
I1432
sg1425
I1433
sg1426
I1434
sg1428
I1436
sg1429
I1437
sg1430
I1438
sg1431
I1439
sg1432
I1440
sg1433
I1441
sg1434
I1442
sg1435
I1443
sg1436
I1444
sg1437
I1445
sg1438
I1446
sg1439
I1447
sg1440
I1448
sg1441
I1449
sg1695
I1706
sg1442
I1450
sg1443
I1451
sg1444
I1452
sg1445
I1453
sg1446
I1454
sg1447
I1455
sg1448
I1456
sg1449
I1457
sg1450
I1458
sg1451
I1459
sg2144
I2157
sS'8'
I1461
sg1772
I1783
sg1453
I1462
sg1454
I1463
sg1455
I1464
sg1456
I1465
sg1457
I1466
sg1763
I1774
sg1459
I1468
sg1460
I1469
sg1461
I1470
sg1462
I1471
sg1463
I1472
sg1464
I1473
sg1465
I1474
sg1466
I1475
sg1467
I1476
sg1468
I1477
sg1469
I1478
sg1470
I1479
sg1471
I1480
sg1472
I1481
sg1473
I1482
sg1474
I1483
sg1475
I1484
sg1476
I1485
sg1477
I1486
sg1478
I1487
sg1479
I1488
sg1480
I1489
sg1481
I1490
sg1482
I1491
sg1484
I1493
sg1485
I1494
sg1486
I1495
sg1487
I1496
sg1488
I1497
sg1489
I1498
sg1490
I1499
sg1491
I1500
sg1492
I1501
sg1493
I1502
sg1494
I1503
sg1495
I1504
sg1496
I1505
sg1497
I1506
sg1498
I1507
sg1500
I1509
sg1769
I1780
sg1009
I1012
sg1502
I1511
sS'c'
I1512
sg1503
I1513
sg1504
I1514
sg1505
I1515
sg1506
I1516
sg1507
I1517
sg1508
I1518
sg116
I114
sg1770
I1781
sg1511
I1521
sg1512
I1522
sg1513
I1523
sg1514
I1524
sg1515
I1525
sg1516
I1526
sg1517
I1527
sg1518
I1528
sg1519
I1529
sg1520
I1530
sg1521
I1531
sg1522
I1532
sg1523
I1533
sg1524
I1534
sg1525
I1535
sg1526
I1536
sg1527
I1537
sg1528
I1538
sg1529
I1539
sg635
I636
sg1531
I1541
sg1532
I1542
sg1534
I1544
sg865
I867
sg1536
I1546
sg1537
I1547
sg1538
I1548
sg1539
I1549
sg1540
I1550
sg1541
I1551
sg1542
I1552
sg1543
I1553
sg1544
I1554
sg1545
I1555
sg1546
I1556
sg1547
I1557
sg1548
I1558
sg44
I42
sg1550
I1560
sg266
I265
sg1552
I1562
sg1747
I1758
sg1553
I1563
sg114
I112
sg1555
I1565
sg159
I157
sg1557
I1567
sg1558
I1568
sg1559
I1569
sg1560
I1570
sg1561
I1571
sg1562
I1572
sS'9'
I1573
sg1563
I1574
sg1564
I1575
sg1565
I1576
sg1566
I1577
sg1783
I1794
sg1568
I1579
sg1569
I1580
sg1570
I1581
sg1571
I1582
sg1572
I1583
sg1573
I1584
sg1574
I1585
sg1575
I1586
sg1576
I1587
sg1577
I1588
sg1578
I1589
sg1579
I1590
sg1580
I1591
sg1581
I1592
sg1582
I1593
sg1583
I1594
sg1584
I1595
sg1585
I1596
sg1586
I1597
sg1587
I1598
sg1588
I1599
sg1589
I1600
sg1590
I1601
sg1591
I1602
sg1592
I1603
sg1593
I1604
sg1594
I1605
sg1595
I1606
sg1596
I1607
sg1597
I1608
sg1598
I1609
sg1599
I1610
sg1600
I1611
sg1601
I1612
sg1602
I1613
sg1603
I1614
sg2246
I2259
sg1604
I1615
sg716
I717
sg1606
I1617
sg1607
I1618
sg1608
I1619
sg1609
I1620
sg1610
I1621
sg450
I451
sg1612
I1623
sg1613
I1624
sg474
I475
sg1615
I1626
sg1616
I1627
sg1617
I1628
sg1618
I1629
sg1619
I1630
sg1620
I1631
sg1621
I1632
sg1622
I1633
sg1623
I1634
sg1624
I1635
sg1625
I1636
sg1626
I1637
sg1627
I1638
sg546
I547
sg6
I4
sg1629
I1640
sg1630
I1641
sg1631
I1642
sg1632
I1643
sg1633
I1644
sg1635
I1646
sg1636
I1647
sg1637
I1648
sg1638
I1649
sg1639
I1650
sg1640
I1651
sg1641
I1652
sg1642
I1653
sg1643
I1654
sg1644
I1655
sg633
I634
sg1646
I1657
sg1647
I1658
sg1648
I1659
sg1649
I1660
sg1650
I1661
sg1651
I1662
sg2178
I2191
sg1653
I1664
sg1654
I1665
sg1655
I1666
sg709
I710
sg2180
I2193
sg1658
I1669
sg1659
I1670
sg1660
I1671
sg1661
I1672
sg1662
I1673
sg1663
I1674
sg1664
I1675
sg1665
I1676
sg1666
I1677
sg1667
I1678
sg1668
I1679
sg1669
I1680
sg1671
I1682
sg844
I846
sg1673
I1684
sg1674
I1685
sg1675
I1686
sg1676
I1687
sg2186
I2199
sg1678
I1689
sg1679
I1690
sg1680
I1691
sg1681
I1692
sg1682
I1693
sg1683
I1694
sg1483
I1492
sg1685
I1696
sg1686
I1697
sg1687
I1698
sg961
I964
sg1689
I1700
sg971
I974
sg1691
I1702
sg1692
I1703
sg1693
I1704
sg1694
I1705
sg1499
I1508
sg1696
I1707
sg1697
I1708
sg1698
I1709
sg1699
I1710
sg1700
I1711
sg1701
I1712
sg1702
I1713
sg1703
I1714
sg1704
I1715
sg1705
I1716
sg1706
I1717
sg1707
I1718
sg1218
I1224
sg1709
I1720
sg1710
I1721
sg1711
I1722
sg313
I313
sg1713
I1724
sg1714
I1725
sg1715
I1726
sg1716
I1727
sg1717
I1728
sg1718
I1729
sg1719
I1730
sg1720
I1731
sg1721
I1732
sg2191
I2204
sg1723
I1734
sg1724
I1735
sg1725
I1736
sg1726
I1737
sg1727
I1738
sg1728
I1739
sg1729
I1740
sg1730
I1741
sg1731
I1742
sg1732
I1743
sg1242
I1249
sg1734
I1745
sg1735
I1746
sg1736
I1747
sg1737
I1748
sg1738
I1749
sg1739
I1750
sg1740
I1751
sg1741
I1752
sg1742
I1753
sg1743
I1754
sg1744
I1755
sg1745
I1756
sg1746
I1757
sg1339
I1347
sg1748
I1759
sg1749
I1760
sg1750
I1761
sg1751
I1762
sg1752
I1763
sg1382
I1390
sg686
I687
sg1754
I1765
sg1755
I1766
sg1756
I1767
sg1757
I1768
sg1758
I1769
sg1759
I1770
sg1760
I1771
sg1761
I1772
sg1762
I1773
sg1458
I1467
sg1764
I1775
sg1765
I1776
sg1766
I1777
sg1767
I1778
sg1768
I1779
sg2123
I2135
sg1501
I1510
sg1510
I1520
sg1811
I1822
sg1049
I1053
sg1773
I1784
sg7
I5
sg1774
I1785
sg1533
I1543
sg1776
I1787
sg1778
I1789
sg1780
I1791
sg1781
I1792
sg1782
I1793
sg1567
I1578
sg1784
I1795
sg1785
I1796
sg1786
I1797
sg1787
I1798
sg1788
I1799
sg1789
I1800
sg1790
I1801
sg1791
I1802
sg1792
I1803
sg1793
I1804
sg1794
I1805
sg1795
I1806
sg1796
I1807
sg1797
I1808
sg1798
I1809
sg1799
I1810
sg1800
I1811
sg1801
I1812
sg1802
I1813
sg1803
I1814
sg1804
I1815
sg1805
I1816
sg1806
I1817
sg1807
I1818
sg1808
I1819
sg1818
I1829
sg1809
I1820
sg1810
I1821
sg1771
I1782
sg1812
I1823
sg1814
I1825
sg1815
I1826
sg2036
I2048
sg1816
I1827
sg1817
I1828
sg1605
I1616
sg1819
I1830
sg1821
I1832
sg1820
I1831
sg1822
I1833
sg1823
I1834
sg1824
I1835
sg1825
I1836
sg1826
I1837
sg1827
I1838
sg1828
I1839
sg1829
I1840
sg1830
I1841
sg1831
I1842
sg1832
I1843
sg1833
I1844
sg1834
I1845
sg1835
I1846
sg1836
I1847
sg1837
I1848
sg1838
I1849
sg1839
I1850
sg1840
I1851
sg1841
I1852
sg1842
I1853
sg1843
I1854
sg1844
I1855
sg1846
I1857
sg1847
I1858
sg1848
I1859
sg1849
I1860
sg1850
I1861
sg1851
I1862
sg1852
I1863
sg1853
I1864
sg1854
I1865
sg1855
I1866
sg1856
I1867
sg1857
I1868
sg1858
I1869
sg2284
I2297
sg1859
I1870
sg1860
I1871
sg1861
I1872
sg1862
I1873
sg1864
I1875
sg1865
I1876
sS'1'
I1877
sg1866
I1878
sg1867
I1879
sg1868
I1880
sg1869
I1881
sg1870
I1882
sg1871
I1883
sg1872
I1884
sg1873
I1885
sg1874
I1886
sg1875
I1887
sg1876
I1888
sg1877
I1889
sg1878
I1890
sg1879
I1891
sg1880
I1892
sg1881
I1893
sg1882
I1894
sg1883
I1895
sg1884
I1896
sg1885
I1897
sg1886
I1898
sg1887
I1899
sg1888
I1900
sg1889
I1901
sg1890
I1902
sg1891
I1903
sg1892
I1904
sg1893
I1905
sg1894
I1906
sg1895
I1907
sg1896
I1908
sg1897
I1909
sg1898
I1910
sg1899
I1911
sg1900
I1912
sg1901
I1913
sg1902
I1914
sg1903
I1915
sg1904
I1916
sg1905
I1917
sg1906
I1918
sg1907
I1919
sg1908
I1920
sg1909
I1921
sg1910
I1922
sg1911
I1923
sg1912
I1924
sg1913
I1925
sg52
I50
sg1915
I1927
sg1916
I1928
sg1917
I1929
sg1918
I1930
sg1919
I1931
sg1920
I1932
sg1921
I1933
sg1922
I1934
sg1923
I1935
sg1924
I1936
sg123
I121
sg149
I147
sg1928
I1940
sg1929
I1941
sg1930
I1942
sg1931
I1943
sg1932
I1944
sg1933
I1945
sg2221
I2234
sg4
I2
sg1935
I1947
sg1936
I1948
sg1937
I1949
sg241
I240
sg1939
I1951
sg1940
I1952
sg1941
I1953
sg1942
I1954
sg1943
I1955
sg1944
I1956
sg1945
I1957
sg1946
I1958
sg1947
I1959
sg1948
I1960
sg1949
I1961
sg1950
I1962
sg290
I289
sg298
I298
sg1953
I1965
sg1954
I1966
sg1955
I1967
sg1956
I1968
sg1957
I1969
sg355
I355
sg1777
I1788
sg1960
I1972
sg1961
I1973
sg1962
I1974
sg1963
I1975
sg1845
I1856
sg1965
I1977
sg1966
I1978
sg1967
I1979
sg1968
I1980
sg1969
I1981
sg1970
I1982
sg1971
I1983
sg1972
I1984
sg1973
I1985
sg1974
I1986
sg1975
I1987
sg1976
I1988
sg1977
I1989
sg1978
I1990
sg1979
I1991
sg1980
I1992
sg1981
I1993
sg480
I481
sg1983
I1995
sg1984
I1996
sg1985
I1997
sg1986
I1998
sg1987
I1999
sg1988
I2000
sg1989
I2001
sg1990
I2002
sg1991
I2003
sg1992
I2004
sg1993
I2005
sg1994
I2006
sg1995
I2007
sg1996
I2008
sg1997
I2009
sg1998
I2010
sg1999
I2011
sg2000
I2012
sg2001
I2013
sg2002
I2014
sg2003
I2015
sg2004
I2016
sg2005
I2017
sg2006
I2018
sg2007
I2019
sg2008
I2020
sg2009
I2021
sg2010
I2022
sg2011
I2023
sg2012
I2024
sg2013
I2025
sg2014
I2026
sg2015
I2027
sg2016
I2028
sg2017
I2029
sg2018
I2030
sg2019
I2031
sg2020
I2032
sg972
I975
sg2022
I2034
sg2023
I2035
sg2024
I2036
sg2025
I2037
sg2026
I2038
sg2027
I2039
sg2028
I2040
sg2029
I2041
sg2030
I2042
sg848
I850
sg2032
I2044
sg2034
I2046
sg2035
I2047
sg691
I692
sg2037
I2049
sg2038
I2050
sg2039
I2051
sg2040
I2052
sg2041
I2053
sg2042
I2054
sg2043
I2055
sg888
I891
sg2045
I2057
sg2046
I2058
sg2047
I2059
sg2048
I2060
sg2049
I2061
sg2050
I2062
sg2051
I2063
sg2052
I2064
sg2053
I2065
sg2054
I2066
sg2055
I2067
sg934
I937
sg2057
I2069
sg2058
I2070
sg2059
I2071
sg2060
I2072
sg2061
I2073
sg962
I965
sg883
I886
sg1254
I1261
sg2065
I2077
sg2066
I2078
sg2067
I2079
sg2068
I2080
sg1013
I1016
sg2070
I2082
sg2071
I2083
sg2072
I2084
sg2073
I2085
sg2074
I2086
sg2075
I2087
sg2076
I2088
sg2077
I2089
sg2078
I2090
sg2079
I2091
sg2080
I2092
sg2081
I2093
sg2082
I2094
sg2083
I2095
sg2084
I2096
sg2085
I2097
sg2086
I2098
sg1097
I1101
sg2088
I2100
sg2097
I2109
sg26
I24
sg2090
I2102
sg1982
I1994
sg1123
I1128
sg5
I3
sg2094
I2106
sg2095
I2107
sg2096
I2108
sg1670
I1681
sg2098
I2110
sg2099
I2111
sg2100
I2112
sg418
I419
sg2102
I2114
sg2103
I2115
sg2104
I2116
sg2105
I2117
sg373
I373
sg2106
I2118
sg2107
I2119
sg2108
I2120
sg2109
I2121
sg589
I590
sg2111
I2123
sg2112
I2124
sg2113
I2125
sg1247
I1254
sg2115
I2127
sg2116
I2128
sg2117
I2129
sg2033
I2045
sg2119
I2131
sg2120
I2132
sg1324
I1332
sg1329
I1337
sg1427
I1435
sg2124
I2136
sg2125
I2137
sg1509
I1519
sg2127
I2139
sg2128
I2140
sg2129
I2141
sg2130
I2142
sg2131
I2143
sg2132
I2144
sg2133
I2145
sg2134
I2146
sg1386
I1394
sVi
I2148
sg2136
I2149
sg2137
I2150
sg2138
I2151
sg2139
I2152
sg2140
I2153
sg2141
I2154
sg2142
I2155
sg2143
I2156
sg1452
I1460
sg2145
I2158
sg2146
I2159
sg2147
I2160
sg2148
I2161
sg1172
I1178
sg2150
I2163
sg2151
I2164
sg2152
I2165
sg2153
I2166
sg2154
I2167
sg2155
I2168
sg15
I13
sg2156
I2169
sg2157
I2170
sg2158
I2171
sg2159
I2172
sg1551
I1561
sg2161
I2174
sg2162
I2175
sg2163
I2176
sg2164
I2177
sg2165
I2178
sg2166
I2179
sg2167
I2180
sg2168
I2181
sg2169
I2182
sg2170
I2183
sg2171
I2184
sg2172
I2185
sg2173
I2186
sg2174
I2187
sg2175
I2188
sg2176
I2189
sg1926
I1938
sg1652
I1663
sg2179
I2192
sg1657
I1668
sg2181
I2194
sg2182
I2195
sg2183
I2196
sg2184
I2197
sg2185
I2198
sg1677
I1688
sg2187
I2200
sg2188
I2201
sg756
I757
sg2190
I2203
sg1722
I1733
sg2192
I2205
sg2193
I2206
sg2194
I2207
sg2195
I2208
sg2196
I2209
sg2197
I2210
sg2198
I2211
sg1779
I1790
sg2200
I2213
sg2201
I2214
sg2202
I2215
sg2203
I2216
sg2204
I2217
sg2205
I2218
sg2206
I2219
sg2207
I2220
sg2208
I2221
sg2209
I2222
sg2210
I2223
sg2211
I2224
sg2212
I2225
sg2213
I2226
sg2215
I2228
sg2216
I2229
sg2217
I2230
sg2218
I2231
sg2219
I2232
sg2220
I2233
sg1934
I1946
sg2281
I2294
sg2223
I2236
sg2282
I2295
sg2225
I2238
sg2226
I2239
sg1277
I1285
sg2228
I2241
sg2229
I2242
sg2230
I2243
sg2231
I2244
sg2232
I2245
sg2233
I2246
sg2234
I2247
sg2235
I2248
sg2236
I2249
sg2237
I2250
sg2238
I2251
sg2239
I2252
sg2240
I2253
sg2241
I2254
sg2242
I2255
sg2243
I2256
sg2244
I2257
sg2245
I2258
sg1535
I1545
sg2247
I2260
sg2248
I2261
sg2249
I2262
sg2285
I2298
sg2250
I2263
sg2251
I2264
sg2252
I2265
sg2253
I2266
sg2254
I2267
sg2255
I2268
sg10
I8
sg2256
I2269
sg2257
I2270
sg2258
I2271
sg2259
I2272
sg2260
I2273
sg2261
I2274
sg2262
I2275
sg2263
I2276
sg2264
I2277
sg2265
I2278
sg2266
I2279
sg2267
I2280
sg2268
I2281
sg2269
I2282
sg2270
I2283
sg1863
I1874
sg2272
I2285
sg2273
I2286
sg1813
I1824
sg2275
I2288
sg2276
I2289
sg2277
I2290
sg2278
I2291
sg2279
I2292
sg2280
I2293
sg2222
I2235
sg2224
I2237
sg2283
I2296
sg2214
I2227
sg2177
I2190
sg2286
I2299
sg2287
I2300
sg2288
I2301
sg2289
I2302
sg2290
I2303
sg2291
I2304
sg2292
I2305
s(lp2294
S'user_affirm'
p2295
aS'user_ack'
p2296
aS'user_finish'
p2297
aS'user_start'
p2298
ag2297
ag2298
aS'user_restart'
p2299
aS'user_report'
p2300
aS'user_dont_want_report'
p2301
a(lp2302
S'user_inform_whenstart_hour'
p2303
aS'user_inform_whenstart_min'
p2304
aS'user_inform_whened_hour'
p2305
aS'user_inform_whened_min'
p2306
aS'user_inform_duration_hour'
p2307
aS'user_inform_duration_min'
p2308
a(lp2309
S'user_inform_what'
p2310
aS'user_inform_day'
p2311
aS'user_inform_where'
p2312
aS'text'
p2313
at.