((dp1
I0
S'<END>'
p2
sI1
S'<START>'
p3
sI2
S'<TOK0>'
p4
sI3
S'<TOK1>'
p5
sI4
S'<TOK2>'
p6
sI5
S'<TOK3>'
p7
sI6
S'<TOK4>'
p8
sI7
S'<TOK5>'
p9
sI8
S'<TOK6>'
p10
sI9
S'<TOK7>'
p11
sI10
S'<TOK8>'
p12
sI11
S'<TOK9>'
p13
sI12
S'<TOK10>'
p14
sI13
S'<TOK11>'
p15
sI14
S'<TOK12>'
p16
sI15
S'<TOK13>'
p17
sI16
S'<TOK14>'
p18
sI17
S'<TOK15>'
p19
sI18
S'<TOK16>'
p20
sI19
S'<TOK17>'
p21
sI20
S'<TOK18>'
p22
sI21
S'<TOK19>'
p23
sI22
Vcalli,
p24
sI23
Vhaydon
p25
sI24
Vtandi,
p26
sI25
Vriccardo
p27
sI26
Vbritani,
p28
sI27
S'elisabeth'
p29
sI28
Vfour
p30
sI29
Vnananne
p31
sI30
Vgilberte,
p32
sI31
Vguinna
p33
sI32
Vroslyn
p34
sI33
Vflorence,
p35
sI34
Vkarlee
p36
sI35
Vhedy
p37
sI36
Vgeraldo
p38
sI37
Vtobie
p39
sI38
Vmallorie
p40
sI39
Vedward
p41
sI40
Vlaurel,
p42
sI41
Vtobit
p43
sI42
Vregan
p44
sI43
Vheda
p45
sI44
Vplants
p46
sI45
Vkissie,
p47
sI46
Vstanton
p48
sI47
S'geology'
p49
sI48
Vwood,
p50
sI49
Vaurore
p51
sI50
Vwilfred
p52
sI51
Vkassey
p53
sI52
Vdarbie
p54
sI53
Vbrandice,
p55
sI54
Vrochester,
p56
sI55
S'school'
p57
sI56
Vbraden,
p58
sI57
Vduke,
p59
sI58
Vammamaria
p60
sI59
S'wednesday'
p61
sI60
Vatlante,
p62
sI61
Vheddi,
p63
sI62
Vanjela,
p64
sI63
Vmarco,
p65
sI64
Vpoppy
p66
sI65
Vcaryn
p67
sI66
Vmarkos
p68
sI67
Venjoy
p69
sI68
Vnorwood,
p70
sI69
Vfilippa,
p71
sI70
Vtannie,
p72
sI71
S'street'
p73
sI72
Vkathye,
p74
sI73
Vcesar
p75
sI74
Vgwenni
p76
sI75
Vdianemarie,
p77
sI76
Vwilfrid
p78
sI77
Vchriss
p79
sI78
S'conservatorium'
p80
sI79
Vroddy
p81
sI80
Vhildagarde,
p82
sI81
Vtucker,
p83
sI82
Vlucienne,
p84
sI83
S'asia'
p85
sI84
Vinez,
p86
sI85
Vdouglis
p87
sI86
Vnew
p88
sI87
Vphilippe
p89
sI88
Vbutch,
p90
sI89
Vavery
p91
sI90
Vparwane
p92
sI91
Vrodolphe,
p93
sI92
Vharrie,
p94
sI93
Vdore
p95
sI94
Vadey,
p96
sI95
S'studio'
p97
sI96
Vbogdan
p98
sI97
Valeen
p99
sI98
Vwilla,
p100
sI99
Vjoceline
p101
sI100
Vgerry
p102
sI101
Vcindi
p103
sI102
Vvite,
p104
sI103
Vstevie
p105
sI104
S'economics'
p106
sI105
Vzebulen
p107
sI106
S'credit'
p108
sI107
Vjogging
p109
sI108
Vomar
p110
sI109
Vmalissa,
p111
sI110
Vshani,
p112
sI111
Vi'm
p113
sI112
Vbroddie,
p114
sI113
Vsibylla,
p115
sI114
Vlurette,
p116
sI115
Vmarianna
p117
sI116
Vrhett,
p118
sI117
Volaf,
p119
sI118
Vrickie,
p120
sI119
Vlynna
p121
sI120
Vjeremiah,
p122
sI121
Vjordy,
p123
sI122
Vmitchel
p124
sI123
Vjoana,
p125
sI124
Vfergus,
p126
sI125
Vkatusha,
p127
sI126
Vharlene
p128
sI127
Vjanine
p129
sI128
Vhillary,
p130
sI129
Vjanina
p131
sI130
Vmignonne,
p132
sI131
Vcara
p133
sI132
Vfaith,
p134
sI133
Vwould
p135
sI134
Vhospital
p136
sI135
Vlet's
p137
sI136
Varliene
p138
sI137
Vflor,
p139
sI138
Vceil,
p140
sI139
Vaverill,
p141
sI140
Vcall
p142
sI141
Vbinky,
p143
sI142
Vnate
p144
sI143
Vkalina
p145
sI144
Vtell
p146
sI145
Vfredia,
p147
sI146
Vmarve
p148
sI147
Vsushi
p149
sI148
Vgrier
p150
sI149
Vcandace,
p151
sI150
Vrozanne,
p152
sI151
Vrhetta
p153
sI152
Vkirbee
p154
sI153
Vbogart,
p155
sI154
Vsosanna
p156
sI155
Vadnan
p157
sI156
Vjanina,
p158
sI157
Venglebert,
p159
sI158
Vme
p160
sI159
Vnorwood
p161
sI160
Vflore
p162
sI161
Vcary,
p163
sI162
Vwork
p164
sI163
Vwallie,
p165
sI164
Vboyce
p166
sI165
Vrobbie,
p167
sI166
Vmovies
p168
sI167
Vmaximilian
p169
sI168
S'erc'
p170
sI169
Vleese,
p171
sI170
Vhansel
p172
sI171
Vphylis
p173
sI172
Vmy
p174
sI173
Vgloria
p175
sI174
Vmatilda
p176
sI175
Vlise,
p177
sI176
Vlenee,
p178
sI177
Vbarty,
p179
sI178
Vmatthus
p180
sI179
Vhyatt
p181
sI180
Vmelony
p182
sI181
Vtaddeo,
p183
sI182
Vantonius,
p184
sI183
Vki,
p185
sI184
Vmicky
p186
sI185
Vjulissa
p187
sI186
Vorion
p188
sI187
Vlancelot
p189
sI188
Vwant
p190
sI189
Vnancie,
p191
sI190
Vmerissa
p192
sI191
Vend
p193
sI192
Vskyler
p194
sI193
Vjoane
p195
sI194
Vleonelle
p196
sI195
Vtravel
p197
sI196
Vrosalind,
p198
sI197
Vwinny
p199
sI198
Valia,
p200
sI199
Vrabi,
p201
sI200
Vellene,
p202
sI201
Vwin,
p203
sI202
Vgranville
p204
sI203
Vinterview
p205
sI204
S'gate'
p206
sI205
Vkaja
p207
sI206
Vtrescha,
p208
sI207
S'hoy'
p209
sI208
Vflynn,
p210
sI209
Vriccardo,
p211
sI210
Vhersch
p212
sI211
Vdietrich
p213
sI212
Vriane
p214
sI213
Vhildagarde
p215
sI214
Vmontague
p216
sI215
Vwrong
p217
sI216
Vbecki
p218
sI217
Vhector,
p219
sI218
Vhailee,
p220
sI219
Vmariejeanne
p221
sI220
Vbrenna
p222
sI221
Varliene,
p223
sI222
S'law'
p224
sI223
Vjulianna,
p225
sI224
Vciel,
p226
sI225
Vjoan,
p227
sI226
Vamie
p228
sI227
Vrobinet,
p229
sI228
Vchristofer,
p230
sI229
Voralle
p231
sI230
Vwinn
p232
sI231
Vtonya,
p233
sI232
Vkirbee,
p234
sI233
Vhirsch,
p235
sI234
S'g16'
p236
sI235
Vdanna
p237
sI236
Vpeg,
p238
sI237
Vaharon
p239
sI238
Vcelisse
p240
sI239
Vgenny,
p241
sI240
S'office'
p242
sI241
Vzorina,
p243
sI242
Vmuffin
p244
sI243
Vover
p245
sI244
Vsibylla
p246
sI245
Vpascal
p247
sI246
Vgeorgianna
p248
sI247
Vjeni,
p249
sI248
Vhansel,
p250
sI249
Vhaskell,
p251
sI250
Vmerrill
p252
sI251
Vvita
p253
sI252
Vberkie,
p254
sI253
Vaugusta,
p255
sI254
Vticket
p256
sI255
Vvite
p257
sI256
Vbrandice
p258
sI257
Vworthington,
p259
sI258
Vedith
p260
sI259
Vuriah
p261
sI260
V,
sI261
Vjoanne,
p262
sI262
Vkamila,
p263
sI263
Vbaily
p264
sI264
Vosgood
p265
sI265
Vstanfield,
p266
sI266
Venrica
p267
sI267
Vlavinie,
p268
sI268
Voran,
p269
sI269
Vantone,
p270
sI270
Vlynette,
p271
sI271
Vania
p272
sI272
S'haymarket'
p273
sI273
Vmorena,
p274
sI274
Vdanyette,
p275
sI275
Valex
p276
sI276
Vloraine
p277
sI277
S'quadrangle'
p278
sI278
Vnixie
p279
sI279
Vpersis,
p280
sI280
Vbrooks,
p281
sI281
Vyovonnda
p282
sI282
Vtrudey
p283
sI283
Vingrid
p284
sI284
Vmeal
p285
sI285
Vtamarra,
p286
sI286
Vblinni
p287
sI287
Vroxy
p288
sI288
Vlianna,
p289
sI289
Vedgardo
p290
sI290
Vreginald,
p291
sI291
Vstarlene
p292
sI292
Vtamarra
p293
sI293
S'gymnasium'
p294
sI294
Vgroup
p295
sI295
Vengracia,
p296
sI296
Vblinny
p297
sI297
Vjoni,
p298
sI298
Vroxi
p299
sI299
Vsissie
p300
sI300
S'doug'
p301
sI301
Vbarrie,
p302
sI302
Vbeilul
p303
sI303
Vtruman
p304
sI304
Vglorianna
p305
sI305
S'saturday'
p306
sI306
Vkathlene
p307
sI307
Vjulianna
p308
sI308
Vchrissie
p309
sI309
Varielle
p310
sI310
Vforty
p311
sI311
Vmason
p312
sI312
Vnita
p313
sI313
Vdaniel
p314
sI314
Vodette,
p315
sI315
S'medicine'
p316
sI316
Vmandi
p317
sI317
Vcarry,
p318
sI318
Vtillie,
p319
sI319
Vclarence
p320
sI320
Vneddy,
p321
sI321
Vevvy
p322
sI322
Vsheelagh
p323
sI323
Vfred
p324
sI324
Vdorian,
p325
sI325
Velissa
p326
sI326
Vkimberley,
p327
sI327
Vdorolisa
p328
sI328
Vbenson,
p329
sI329
Vchanna,
p330
sI330
Vstarts
p331
sI331
Vanselma
p332
sI332
Vanson,
p333
sI333
Vdanie,
p334
sI334
Vcaressa,
p335
sI335
Vdamaris
p336
sI336
Vjulissa,
p337
sI337
Vtamara,
p338
sI338
Vandie
p339
sI339
Vhewett
p340
sI340
Vrana
p341
sI341
Vdione
p342
sI342
Vbearnard
p343
sI343
Vwash
p344
sI344
Vcalypso,
p345
sI345
Vmelba,
p346
sI346
S'electronic'
p347
sI347
Vclementia
p348
sI348
Vcynthia,
p349
sI349
Vcarree
p350
sI350
Vcarlyle
p351
sI351
Vperi,
p352
sI352
Vira,
p353
sI353
S'service'
p354
sI354
Vdarwin,
p355
sI355
Vpeggie
p356
sI356
Vinger
p357
sI357
Vbroddie
p358
sI358
S'gilbert'
p359
sI359
S'john'
p360
sI360
Vandrew,
p361
sI361
Valexandra,
p362
sI362
Vbernd,
p363
sI363
Vdion,
p364
sI364
Vstephie,
p365
sI365
Vfarand,
p366
sI366
Vgym
p367
sI367
Vlucienne
p368
sI368
Valbert
p369
sI369
Vanjanette
p370
sI370
Vphilomena
p371
sI371
Vjessamine,
p372
sI372
Vgretchen
p373
sI373
Vtam
p374
sI374
Vbegins
p375
sI375
Vmercy
p376
sI376
Vnomi,
p377
sI377
Vpeggi,
p378
sI378
Vsansone
p379
sI379
Vtree
p380
sI380
Vbartolomeo
p381
sI381
Vclasses
p382
sI382
Vbartolomei
p383
sI383
Vnelie
p384
sI384
Vreggie,
p385
sI385
Vshelba,
p386
sI386
Vloraine,
p387
sI387
Vrockwell,
p388
sI388
Vilene
p389
sI389
Vyancey
p390
sI390
Vmind
p391
sI391
Vsharity
p392
sI392
Voneida,
p393
sI393
S'childcare'
p394
sI394
Vferinand
p395
sI395
Vlula
p396
sI396
Vwestleigh
p397
sI397
Vsashenka
p398
sI398
Vferdie
p399
sI399
Vgabriela
p400
sI400
Vterrie
p401
sI401
Vthornton
p402
sI402
Vrockwell
p403
sI403
S'-'
sI404
Vmaryrose
p404
sI405
Vshawn
p405
sI406
Vderek
p406
sI407
Vebeneser,
p407
sI408
Vulrica
p408
sI409
Vkalie,
p409
sI410
Valma,
p410
sI411
Vmarve,
p411
sI412
Vinigo
p412
sI413
Vsinclare
p413
sI414
Vsebastiano,
p414
sI415
Vrivkah
p415
sI416
Vcherin,
p416
sI417
Vshoshanna
p417
sI418
Vbard,
p418
sI419
Vthe
p419
sI420
Vchrist
p420
sI421
Vanthony,
p421
sI422
S'don'
p422
sI423
Vmignonne
p423
sI424
Vrogers
p424
sI425
Vdom
p425
sI426
Vflor
p426
sI427
S'medical'
p427
sI428
Vterri,
p428
sI429
Vchriss,
p429
sI430
Vdoe
p430
sI431
Vkarry
p431
sI432
Vconstanta,
p432
sI433
Vsherye
p433
sI434
S'dow'
p434
sI435
Vjean-lou,
p435
sI436
Vkristen
p436
sI437
Vgladis
p437
sI438
Vmelony,
p438
sI439
Vchariot
p439
sI440
Vmyrta,
p440
sI441
Vdickey
p441
sI442
Vterese
p442
sI443
S'earth'
p443
sI444
Vmaribeth
p444
sI445
Vcybelle
p445
sI446
Vjoao,
p446
sI447
Vvinni
p447
sI448
Vcissie
p448
sI449
Vwoodie,
p449
sI450
Vem,
p450
sI451
Vcelestyn,
p451
sI452
Vkylila
p452
sI453
Vbliss
p453
sI454
Vrick
p454
sI455
Vtomi,
p455
sI456
Vstephani
p456
sI457
Vchristof,
p457
sI458
Vebonee,
p458
sI459
Vdanya,
p459
sI460
Vdo
p460
sI461
Vnewton
p461
sI462
Vwallie
p462
sI463
Vtammi
p463
sI464
Vwatch
p464
sI465
Vceil
p465
sI466
Vmeditate
p466
sI467
Vwilow
p467
sI468
Vreport
p468
sI469
Vmegen
p469
sI470
Vearl
p470
sI471
S'bar'
p471
sI472
Vroderick
p472
sI473
Vjemmy,
p473
sI474
Vajay,
p474
sI475
Vbay
p475
sI476
Vsybilla,
p476
sI477
Vshanna,
p477
sI478
Vbrana,
p478
sI479
Vpiggy
p479
sI480
Vtandy,
p480
sI481
Vcherey,
p481
sI482
Venrica,
p482
sI483
Vleola,
p483
sI484
Valfonzo,
p484
sI485
Vclaudetta,
p485
sI486
Vtownie
p486
sI487
Vclarette
p487
sI488
Vlancelot,
p488
sI489
Vlorita,
p489
sI490
Vtommie
p490
sI491
Vmarylin
p491
sI492
Vclem
p492
sI493
Vclea
p493
sI494
Vkial,
p494
sI495
Vsaid
p495
sI496
Vcarleigh
p496
sI497
S'grattan'
p497
sI498
Vcristine,
p498
sI499
Vrakel,
p499
sI500
Vreggy
p500
sI501
Vcorrinne
p501
sI502
Vsrinivas
p502
sI503
Vailee
p503
sI504
Vkellia,
p504
sI505
Vtressa
p505
sI506
Vthane,
p506
sI507
Vrobb,
p507
sI508
Vgavra,
p508
sI509
Vjulie,
p509
sI510
Vnena
p510
sI511
Vreece,
p511
sI512
Vemelda,
p512
sI513
Vchelsey,
p513
sI514
Vconan,
p514
sI515
Vethyl,
p515
sI516
Vmoria,
p516
sI517
Vallsun,
p517
sI518
Vflorian,
p518
sI519
S'myer'
p519
sI520
Vedgar
p520
sI521
Vmichaella
p521
sI522
Vuna
p522
sI523
Vcob
p523
sI524
Velinor
p524
sI525
Vtheresita
p525
sI526
Vcon
p526
sI527
Vdulsea
p527
sI528
Vethel
p528
sI529
Vwinnie
p529
sI530
S'royal'
p530
sI531
Vtomkin
p531
sI532
S'mcphee'
p532
sI533
S'initiative'
p533
sI534
Vcelestyn
p534
sI535
Vconference
p535
sI536
Vpetronille,
p536
sI537
Vsam
p537
sI538
Vthibaud,
p538
sI539
S'union'
p539
sI540
Vsal
p540
sI541
Vthree
p541
sI542
V.
sI543
Vkelsi
p542
sI544
Vsammy,
p543
sI545
S'exhibition'
p544
sI546
Vannalee,
p545
sI547
S'life'
p546
sI548
Vtalia
p547
sI549
Vollie,
p548
sI550
Vdave
p549
sI551
Vyigal,
p550
sI552
Vclarance
p551
sI553
Vchandal,
p552
sI554
Vjeanne,
p553
sI555
Vdollie,
p554
sI556
Vrori
p555
sI557
Vcharisse
p556
sI558
Vhannibal,
p557
sI559
Vkingston,
p558
sI560
Vcesar,
p559
sI561
Vkalvin,
p560
sI562
Vvikki
p561
sI563
Vberenice,
p562
sI564
Vkeeley
p563
sI565
Vcatlee,
p564
sI566
Vjerald
p565
sI567
Vraymund
p566
sI568
Vseven
p567
sI569
Vquincey
p568
sI570
Vtallie,
p569
sI571
Vkalila
p570
sI572
Vbrewer
p571
sI573
Vis
p572
sI574
Vphillipp,
p573
sI575
Vit
p574
sI576
Vpeggie,
p575
sI577
Vjess
p576
sI578
Vantonina
p577
sI579
Veighteen
p578
sI580
Vjuana
p579
sI581
Vmirabelle
p580
sI582
Vin
p581
sI583
Vmerola
p582
sI584
S'pathology'
p583
sI585
Vlottie
p584
sI586
Vantonino
p585
sI587
Vmyrta
p586
sI588
Vmonika,
p587
sI589
S'memorial'
p588
sI590
Vdanyelle
p589
sI591
Vlorianne
p590
sI592
Vnike
p591
sI593
Vbelle
p592
sI594
Vmake
p593
sI595
S'queensberry'
p594
sI596
Vbella
p595
sI597
Vruperta
p596
sI598
Vkarlotta,
p597
sI599
Vtomkin,
p598
sI600
Vothilia,
p599
sI601
Vingrid,
p600
sI602
Vmead,
p601
sI603
Vmilt,
p602
sI604
Vkristos,
p603
sI605
Vwynton
p604
sI606
Vgerry,
p605
sI607
Vadolfo,
p606
sI608
Vevie
p607
sI609
S'social'
p608
sI610
Vhang
p609
sI611
Velle
p610
sI612
Vkit
p611
sI613
Vxymenes
p612
sI614
Vhans
p613
sI615
Vsal,
p614
sI616
Vanatol,
p615
sI617
Vcarilyn,
p616
sI618
Vbartolomei,
p617
sI619
Vwiatt,
p618
sI620
Vjeff,
p619
sI621
Vdylan
p620
sI622
Vlucas
p621
sI623
Vcharlie
p622
sI624
Vbetta,
p623
sI625
Vtobie,
p624
sI626
S'academic'
p625
sI627
Vjean
p626
sI628
S'spencer'
p627
sI629
Vkarina
p628
sI630
Vkalina,
p629
sI631
Vlaptop
p630
sI632
Vtedman
p631
sI633
Vgreg,
p632
sI634
Vginni,
p633
sI635
Vthanks
p634
sI636
Vsheena
p635
sI637
Vyes
p636
sI638
Vsue-elle,
p637
sI639
Vmohamed
p638
sI640
Vestrellita,
p639
sI641
Vabbie,
p640
sI642
Vhan
p641
sI643
S'sciences'
p642
sI644
Vcherry
p643
sI645
Vjosh
p644
sI646
Vtrina
p645
sI647
Vkalvin
p646
sI648
Vmaisey
p647
sI649
Vhally,
p648
sI650
Vjulie
p649
sI651
Vtania,
p650
sI652
Valthea
p651
sI653
S'reuse'
p652
sI654
Vthibaud
p653
sI655
Vgregg
p654
sI656
Vambrose,
p655
sI657
Vmaynord,
p656
sI658
Vcalypso
p657
sI659
Vgustaf
p658
sI660
Vcoleman,
p659
sI661
Vmason,
p660
sI662
Vdonal
p661
sI663
Vroslyn,
p662
sI664
Vchrissie,
p663
sI665
Vkelsi,
p664
sI666
Vbernd
p665
sI667
Vjanet,
p666
sI668
S'alice'
p667
sI669
Vrobbie
p668
sI670
Vremind
p669
sI671
Vgwendolyn
p670
sI672
Vbessy,
p671
sI673
Vzulema
p672
sI674
Vnight
p673
sI675
Vzarah,
p674
sI676
Vright
p675
sI677
S'old'
p676
sI678
Vmeredith,
p677
sI679
Vperceval
p678
sI680
Vrora,
p679
sI681
Vbenni,
p680
sI682
Vkirstyn,
p681
sI683
Vdonny
p682
sI684
Vdorian
p683
sI685
Vthadeus,
p684
sI686
S'<NO>'
p685
sI687
Vgenvieve,
p686
sI688
Vmargeaux,
p687
sI689
Vpetrina
p688
sI690
Vemmaline,
p689
sI691
Vsharia,
p690
sI692
Vfor
p691
sI693
Vflorence
p692
sI694
S'centre'
p693
sI695
Vfox
p694
sI696
Vwitty
p695
sI697
Veverything
p696
sI698
Vjanith
p697
sI699
Vfiorenze,
p698
sI700
Vburl
p699
sI701
S'dental'
p700
sI702
Vstefan
p701
sI703
Vwaylin
p702
sI704
Vdevora,
p703
sI705
Vrhona
p704
sI706
Vbettie,
p705
sI707
S'post'
p706
sI708
Vcory
p707
sI709
Vselena,
p708
sI710
Vmiquela
p709
sI711
Vdotti
p710
sI712
Vshirline
p711
sI713
Vinessa
p712
sI714
Vadey
p713
sI715
Vharmonia,
p714
sI716
Vtymothy
p715
sI717
Vdinner
p716
sI718
Vjennilee
p717
sI719
Vvilma
p718
sI720
Vanalise
p719
sI721
Vmarshal
p720
sI722
Vethelin,
p721
sI723
Vwiatt
p722
sI724
Vlita,
p723
sI725
Vmeryl,
p724
sI726
Vdyson
p725
sI727
Vsergio
p726
sI728
Vlois
p727
sI729
Vjeni
p728
sI730
Vcrysta
p729
sI731
Vdante,
p730
sI732
Vmaressa
p731
sI733
Vrobinet
p732
sI734
Vlaural
p733
sI735
Vjena
p734
sI736
Vjeniece
p735
sI737
Vkrystal,
p736
sI738
Vmalva
p737
sI739
Vberchtold
p738
sI740
Vhalli
p739
sI741
Vbecki,
p740
sI742
Vannabell
p741
sI743
Vharriett,
p742
sI744
Vviv,
p743
sI745
Vnova
p744
sI746
Vclass
p745
sI747
Vcrysta,
p746
sI748
Vaurelie
p747
sI749
S'clinical'
p748
sI750
Vhally
p749
sI751
S'music'
p750
sI752
Vcherie,
p751
sI753
Vhappy
p752
sI754
Vlorraine,
p753
sI755
Vfania,
p754
sI756
Vpembroke
p755
sI757
Vorsa,
p756
sI758
Vmarshal,
p757
sI759
S'6'
sI760
Vpierre
p758
sI761
Vsherye,
p759
sI762
Vignaz
p760
sI763
Vhear
p761
sI764
Vmelania
p762
sI765
Vdiena,
p763
sI766
S'221'
p764
sI767
Vreset
p765
sI768
Varabel
p766
sI769
S'pavilion'
p767
sI770
Vemil
p768
sI771
Vtam,
p769
sI772
Vjemie,
p770
sI773
Vgregg,
p771
sI774
Vuntil
p772
sI775
Vnoreen
p773
sI776
Vanjanette,
p774
sI777
Vdimitrios,
p775
sI778
Vlissy,
p776
sI779
Vwait,
p777
sI780
Verda
p778
sI781
Vdedie,
p779
sI782
Vevangelin
p780
sI783
Vhumbert,
p781
sI784
Vpauly,
p782
sI785
Valoisia,
p783
sI786
Vcindi,
p784
sI787
Vbogart
p785
sI788
S'prayer'
p786
sI789
Voctavius
p787
sI790
Vharvie
p788
sI791
Vacacia
p789
sI792
Vcheck
p790
sI793
Vtobit,
p791
sI794
Vsheril
p792
sI795
Vedgardo,
p793
sI796
Vno
p794
sI797
Vvibhu,
p795
sI798
Vtrina,
p796
sI799
Vandy,
p797
sI800
Vjoni
p798
sI801
Vdirk,
p799
sI802
Vmuffin,
p800
sI803
Valfonzo
p801
sI804
Vlorita
p802
sI805
Vyancey,
p803
sI806
Vupdate
p804
sI807
Vcherida,
p805
sI808
Vcrystie,
p806
sI809
Vcaritta
p807
sI810
Vloree
p808
sI811
Vleontyne
p809
sI812
Vquinlan
p810
sI813
Vdanna,
p811
sI814
Vcarlyn,
p812
sI815
Vdryke
p813
sI816
Vkym,
p814
sI817
Vsukey,
p815
sI818
Vmerrill,
p816
sI819
Vstacy,
p817
sI820
Vhervey
p818
sI821
Vtime
p819
sI822
Vcristin
p820
sI823
Vjanette
p821
sI824
Vevelyn
p822
sI825
Vothilia
p823
sI826
Vmilt
p824
sI827
Vcharisse,
p825
sI828
Vfletch
p826
sI829
Vmandie
p827
sI830
Vskip
p828
sI831
Vrod
p829
sI832
Vrog
p830
sI833
Vtabbitha,
p831
sI834
Vroz
p832
sI835
S'computation'
p833
sI836
Vhelise,
p834
sI837
Velinor,
p835
sI838
Vrow
p836
sI839
Vevie,
p837
sI840
Vpaulita
p838
sI841
Vgael
p839
sI842
Vmeryl
p840
sI843
Veda,
p841
sI844
Vnineteen
p842
sI845
Vromonda
p843
sI846
Vlorraine
p844
sI847
Vshannon,
p845
sI848
Vjefry,
p846
sI849
Velbertine,
p847
sI850
Vmandi,
p848
sI851
Vmyles
p849
sI852
Vlenette
p850
sI853
Vhedy,
p851
sI854
Vjeremy,
p852
sI855
Vignacius
p853
sI856
Vshandee,
p854
sI857
Vvivyan,
p855
sI858
Vhermy
p856
sI859
S'room'
p857
sI860
Vhenriette
p858
sI861
Vbrandi,
p859
sI862
Vvalentin
p860
sI863
Vollie
p861
sI864
Vleave
p862
sI865
Vkarrah
p863
sI866
Vroana,
p864
sI867
Vlaila,
p865
sI868
Vkerrin,
p866
sI869
Vcasie,
p867
sI870
Vmalva,
p868
sI871
Vmelania,
p869
sI872
Vlukas
p870
sI873
Vcherey
p871
sI874
Vjaymee
p872
sI875
Vnady,
p873
sI876
Vkaspar
p874
sI877
Vguinna,
p875
sI878
Vsimeon
p876
sI879
Vkandace
p877
sI880
Vphylis,
p878
sI881
Vcelestine
p879
sI882
Vroarke
p880
sI883
Varvy
p881
sI884
Vphilomena,
p882
sI885
Vroana
p883
sI886
S'international'
p884
sI887
Veloisa,
p885
sI888
Vpoul,
p886
sI889
Vcamille,
p887
sI890
Volia
p888
sI891
Vvalida
p889
sI892
Vashton,
p890
sI893
Vdavina
p891
sI894
Vannalee
p892
sI895
Vblondell
p893
sI896
Vsig,
p894
sI897
Vfrench
p895
sI898
Vwater
p896
sI899
Vdulcinea
p897
sI900
Vstarlene,
p898
sI901
Vmerlina,
p899
sI902
Vbeauregard
p900
sI903
Vclayborn
p901
sI904
Vbenson
p902
sI905
Vkeith,
p903
sI906
Vneville
p904
sI907
Vemmery
p905
sI908
Vthirty
p906
sI909
S'institute'
p907
sI910
Vshift
p908
sI911
Vclayborn,
p909
sI912
Vyetty
p910
sI913
Vniall,
p911
sI914
Vprudi
p912
sI915
Vmargot
p913
sI916
Vmajor,
p914
sI917
Vrinaldo,
p915
sI918
Vchurchill
p916
sI919
Vlove
p917
sI920
Vhiking
p918
sI921
Vciel
p919
sI922
Vemmye
p920
sI923
Vdolorita,
p921
sI924
Vmaryrose,
p922
sI925
Vgarcia,
p923
sI926
Vdidi,
p924
sI927
Vhelise
p925
sI928
Vcandice
p926
sI929
Valyssa,
p927
sI930
Vkissiah
p928
sI931
Vdonal,
p929
sI932
Vflorencia
p930
sI933
Vmatthus,
p931
sI934
Vkacie,
p932
sI935
Vstephie
p933
sI936
Variel
p934
sI937
Vbianca,
p935
sI938
Vperi
p936
sI939
Vhyatt,
p937
sI940
Vferinand,
p938
sI941
S'sports'
p939
sI942
Vkassi
p940
sI943
Vwood
p941
sI944
Vengracia
p942
sI945
Vjanine,
p943
sI946
Vkristian
p944
sI947
Vkrystal
p945
sI948
S'australian'
p946
sI949
Vtruman,
p947
sI950
Vkaroly
p948
sI951
Vlulita
p949
sI952
Vemmy,
p950
sI953
Vfranklyn,
p951
sI954
Vpacifica,
p952
sI955
Vaida,
p953
sI956
Vhollie,
p954
sI957
Velaina,
p955
sI958
Vertha,
p956
sI959
S'brownless'
p957
sI960
Vfrederik,
p958
sI961
Vburl,
p959
sI962
Volive
p960
sI963
Vsue-elle
p961
sI964
Vlyda,
p962
sI965
Vharriette,
p963
sI966
Vangel,
p964
sI967
Vvalli
p965
sI968
Vgilberta,
p966
sI969
Vfawna
p967
sI970
Vroscoe
p968
sI971
Vconsolata
p969
sI972
Vcharlie,
p970
sI973
Vpavia,
p971
sI974
Vcollin,
p972
sI975
Vpiggy,
p973
sI976
Vcoral
p974
sI977
Vmunroe
p975
sI978
Vbeverlee
p976
sI979
Vkym
p977
sI980
S'december'
p978
sI981
Vreynold
p979
sI982
Vcarroll
p980
sI983
Vdennie
p981
sI984
Vcatharine,
p982
sI985
Vheard
p983
sI986
Vemery,
p984
sI987
Vhedda
p985
sI988
Vquiggly,
p986
sI989
Vanalise,
p987
sI990
Vcaressa
p988
sI991
Vheddi
p989
sI992
Vglennie,
p990
sI993
Vodetta
p991
sI994
Vclair
p992
sI995
Vkellie,
p993
sI996
Vreece
p994
sI997
S'sidney'
p995
sI998
Vtannie
p996
sI999
Vilene,
p997
sI1000
Vedith,
p998
sI1001
S'chemical'
p999
sI1002
Vtill
p1000
sI1003
S'sunday'
p1001
sI1004
Vraye
p1002
sI1005
Vdurand,
p1003
sI1006
Vcatlee
p1004
sI1007
Vcoleman
p1005
sI1008
Vjesselyn,
p1006
sI1009
Vhalvard
p1007
sI1010
Vafternoon
p1008
sI1011
Vrivalee
p1009
sI1012
S'may'
p1010
sI1013
Vbirthday
p1011
sI1014
Vgale,
p1012
sI1015
Vdate
p1013
sI1016
Vgale 
p1014
sI1017
Vharmon
p1015
sI1018
Vdevi
p1016
sI1019
Vgoldia,
p1017
sI1020
Vvita,
p1018
sI1021
Vso
p1019
sI1022
Vbenni
p1020
sI1023
Vmichel
p1021
sI1024
Vdavie,
p1022
sI1025
Vduke
p1023
sI1026
Vlawrence,
p1024
sI1027
Vjoana
p1025
sI1028
Vnora,
p1026
sI1029
Vberkie
p1027
sI1030
S'pitch'
p1028
sI1031
Vrosetta
p1029
sI1032
Vdewey,
p1030
sI1033
Vthane
p1031
sI1034
Vromona
p1032
sI1035
Vtull
p1033
sI1036
Vsascha
p1034
sI1037
Vselene,
p1035
sI1038
Vjessamine
p1036
sI1039
Vmarjorie,
p1037
sI1040
Vtorr
p1038
sI1041
Vmunroe,
p1039
sI1042
Vnettie
p1040
sI1043
Vtonia
p1041
sI1044
Vtonie
p1042
sI1045
Vmarmaduke
p1043
sI1046
Vfazeel
p1044
sI1047
Vtyrone,
p1045
sI1048
Vtucker
p1046
sI1049
Vanson
p1047
sI1050
Vhalf
p1048
sI1051
Vnot
p1049
sI1052
Vmaggee
p1050
sI1053
Vbinky
p1051
sI1054
Vnow
p1052
sI1055
Vardenia,
p1053
sI1056
S'hall'
p1054
sI1057
S'biomolecular'
p1055
sI1058
Vtandi
p1056
sI1059
Vbutler,
p1057
sI1060
S'january'
p1058
sI1061
Vavi,
p1059
sI1062
Vbrody
p1060
sI1063
Vdidi
p1061
sI1064
Vjoane,
p1062
sI1065
Vtera
p1063
sI1066
Vleda
p1064
sI1067
Vtandy
p1065
sI1068
Vhaskell
p1066
sI1069
Vkettie
p1067
sI1070
Vkamila
p1068
sI1071
Vwildon
p1069
sI1072
Vquarter
p1070
sI1073
Vcarmela,
p1071
sI1074
Vem
p1072
sI1075
S'square'
p1073
sI1076
Vhobart,
p1074
sI1077
S'bookshop'
p1075
sI1078
Vleanor,
p1076
sI1079
Vwaneta
p1077
sI1080
Vlizabeth
p1078
sI1081
Vrivkah,
p1079
sI1082
Vkimmo
p1080
sI1083
Vlisa,
p1081
sI1084
Valbum
p1082
sI1085
Vsybil
p1083
sI1086
S'space'
p1084
sI1087
Vkenn
p1085
sI1088
Vroderick,
p1086
sI1089
Vmohamed,
p1087
sI1090
Vjaime
p1088
sI1091
Vjemmy
p1089
sI1092
Vjeanette,
p1090
sI1093
Vcary
p1091
sI1094
Vdione,
p1092
sI1095
Vhalli,
p1093
sI1096
Vmaribeth,
p1094
sI1097
Vbrooks
p1095
sI1098
Vbella,
p1096
sI1099
Vajay
p1097
sI1100
Vyuri
p1098
sI1101
Vcarl
p1099
sI1102
Vkarlotte
p1100
sI1103
Vjobye,
p1101
sI1104
Vkeith
p1102
sI1105
Valeen,
p1103
sI1106
Vanatola
p1104
sI1107
Vvanya,
p1105
sI1108
Vondrea,
p1106
sI1109
Viseabal
p1107
sI1110
Vanne-marie
p1108
sI1111
Vstillman
p1109
sI1112
Vken,
p1110
sI1113
Vlindsey
p1111
sI1114
Vplace
p1112
sI1115
Vorly,
p1113
sI1116
Vcob,
p1114
sI1117
Vevangelin,
p1115
sI1118
Vmerrili
p1116
sI1119
Vflower,
p1117
sI1120
Vcarlyn
p1118
sI1121
Vlazlo
p1119
sI1122
S'faculty'
p1120
sI1123
S'potter'
p1121
sI1124
Vmerrile
p1122
sI1125
Vone
p1123
sI1126
Vdiena
p1124
sI1127
Vadara
p1125
sI1128
Vcarry
p1126
sI1129
Vdom,
p1127
sI1130
Vtamara
p1128
sI1131
Vgeorge
p1129
sI1132
S'ian'
p1130
sI1133
Vjinny
p1131
sI1134
Vmarice,
p1132
sI1135
Velden,
p1133
sI1136
S'2'
sI1137
Vjerrilyn
p1134
sI1138
S'white'
p1135
sI1139
Valmira
p1136
sI1140
Vrosario
p1137
sI1141
Vulrich,
p1138
sI1142
Valaa
p1139
sI1143
Vkiersten,
p1140
sI1144
Vthat
p1141
sI1145
Vworden,
p1142
sI1146
Vmemo
p1143
sI1147
S'alan'
p1144
sI1148
Vhillary
p1145
sI1149
Vlesley,
p1146
sI1150
Vtamar,
p1147
sI1151
S'11'
p1148
sI1152
S'10'
p1149
sI1153
S'13'
p1150
sI1154
S'12'
p1151
sI1155
Vhaydon,
p1152
sI1156
S'14'
p1153
sI1157
S'17'
p1154
sI1158
S'16'
p1155
sI1159
S'19'
p1156
sI1160
S'18'
p1157
sI1161
Vantonina,
p1158
sI1162
Vcybelle,
p1159
sI1163
Vlissy
p1160
sI1164
S'victorian'
p1161
sI1165
Vwitty,
p1162
sI1166
Vraye,
p1163
sI1167
Vmarcy,
p1164
sI1168
Vand
p1165
sI1169
Vterese,
p1166
sI1170
Vetty,
p1167
sI1171
Vangel
p1168
sI1172
Vallsun
p1169
sI1173
Vkathye
p1170
sI1174
Vann
p1171
sI1175
Vbelinda,
p1172
sI1176
Vselle
p1173
sI1177
Visadore,
p1174
sI1178
Vadela
p1175
sI1179
Vdasi
p1176
sI1180
Vhalimeda
p1177
sI1181
Vrent
p1178
sI1182
Vshamus,
p1179
sI1183
Vthadeus
p1180
sI1184
Vroxi,
p1181
sI1185
Vsissie,
p1182
sI1186
Vcandice,
p1183
sI1187
Videlle,
p1184
sI1188
Vabdulkarim
p1185
sI1189
Vmontague,
p1186
sI1190
S'dining'
p1187
sI1191
Vphillipp
p1188
sI1192
Vtake
p1189
sI1193
Vtrixi
p1190
sI1194
Vorton,
p1191
sI1195
Vmalissa
p1192
sI1196
Vbegin
p1193
sI1197
Vmichel,
p1194
sI1198
S'theatre'
p1195
sI1199
Vtraci
p1196
sI1200
Vstavros,
p1197
sI1201
Vwinn,
p1198
sI1202
Vethelin
p1199
sI1203
Vsean,
p1200
sI1204
Vlisha,
p1201
sI1205
S'lawn'
p1202
sI1206
Vcatriona
p1203
sI1207
Vbobette
p1204
sI1208
Vdedie
p1205
sI1209
Vrenae
p1206
sI1210
Vranice
p1207
sI1211
Vvladimir,
p1208
sI1212
Vzola
p1209
sI1213
Vpauli,
p1210
sI1214
Varianne,
p1211
sI1215
Vpatin
p1212
sI1216
Vvernen,
p1213
sI1217
Vcorrie
p1214
sI1218
Vetta,
p1215
sI1219
Vshow
p1216
sI1220
Vadolfo
p1217
sI1221
Vnancie
p1218
sI1222
Vtaddeo
p1219
sI1223
Vminny,
p1220
sI1224
S'geography'
p1221
sI1225
Vhoratio,
p1222
sI1226
Vebeneser
p1223
sI1227
Vupgrade
p1224
sI1228
Vstephannie,
p1225
sI1229
Vroby
p1226
sI1230
Vhoracio,
p1227
sI1231
Vnanon,
p1228
sI1232
Vgoing
p1229
sI1233
S'hockey'
p1230
sI1234
Vstormi
p1231
sI1235
Vjordy
p1232
sI1236
Vrobb
p1233
sI1237
Vrandall,
p1234
sI1238
Vchantal
p1235
sI1239
Vyelena
p1236
sI1240
Vget
p1237
sI1241
Vjosh,
p1238
sI1242
Vhailee
p1239
sI1243
Vnels
p1240
sI1244
Vbelita
p1241
sI1245
Vvinnie,
p1242
sI1246
Vmalvina
p1243
sI1247
Vharriette
p1244
sI1248
Vdorolisa,
p1245
sI1249
Vhenriette,
p1246
sI1250
Vgwennie,
p1247
sI1251
S'resource'
p1248
sI1252
Vsharity,
p1249
sI1253
Vstacie
p1250
sI1254
Vmorning
p1251
sI1255
Vjacky,
p1252
sI1256
Vcharlotte,
p1253
sI1257
Vfreeman,
p1254
sI1258
Vchristalle,
p1255
sI1259
Vlaraine,
p1256
sI1260
Vardys
p1257
sI1261
Vcarole,
p1258
sI1262
Vsukey
p1259
sI1263
Vconcert
p1260
sI1264
Vluisa,
p1261
sI1265
Vdotti,
p1262
sI1266
Vgeraldo,
p1263
sI1267
Vdoralia
p1264
sI1268
Vclarette,
p1265
sI1269
S'college'
p1266
sI1270
Vsean
p1267
sI1271
Vquiggly
p1268
sI1272
Vbraden
p1269
sI1273
Verminia,
p1270
sI1274
Vmugsy,
p1271
sI1275
Vtimmi,
p1272
sI1276
Vcobby,
p1273
sI1277
Vteena
p1274
sI1278
Vwain,
p1275
sI1279
S'tsubu'
p1276
sI1280
S'3'
sI1281
Vbrigitta,
p1277
sI1282
Vkarmen
p1278
sI1283
Vcathe,
p1279
sI1284
Vjobye
p1280
sI1285
Vtisha
p1281
sI1286
Vsalomo,
p1282
sI1287
Vodelia
p1283
sI1288
S'25'
p1284
sI1289
Vkristal
p1285
sI1290
Vcarolee
p1286
sI1291
Vamory
p1287
sI1292
S'jacobs'
p1288
sI1293
Velijah
p1289
sI1294
Velnora,
p1290
sI1295
Vmariette
p1291
sI1296
Vviole,
p1292
sI1297
Vrhona,
p1293
sI1298
Vkirsten
p1294
sI1299
Vwally
p1295
sI1300
Vjo
p1296
sI1301
Vjesselyn
p1297
sI1302
Vbernette,
p1298
sI1303
Vtome,
p1299
sI1304
Vsimeon,
p1300
sI1305
Vmerry
p1301
sI1306
S'hercus'
p1302
sI1307
Vbeverlee,
p1303
sI1308
Vkirstyn
p1304
sI1309
Vchristie
p1305
sI1310
S'audiology'
p1306
sI1311
Vdonny,
p1307
sI1312
Vwerner
p1308
sI1313
Vcancel
p1309
sI1314
S'boas'
p1310
sI1315
Vjeane
p1311
sI1316
Vlane,
p1312
sI1317
Vkinna
p1313
sI1318
Venglebert
p1314
sI1319
S'arts'
p1315
sI1320
Vkatlin
p1316
sI1321
Vhoward
p1317
sI1322
S'barry'
p1318
sI1323
Vmadelaine
p1319
sI1324
Vtimmi
p1320
sI1325
Vmart
p1321
sI1326
Vmarv
p1322
sI1327
Vgabrila
p1323
sI1328
Vkelcey,
p1324
sI1329
Vmary
p1325
sI1330
Vshopping
p1326
sI1331
Vamery
p1327
sI1332
Vchiquita,
p1328
sI1333
Vandrew
p1329
sI1334
Vgiraldo,
p1330
sI1335
Vwake
p1331
sI1336
Vruby
p1332
sI1337
Vglenna,
p1333
sI1338
Vcase
p1334
sI1339
Vantone
p1335
sI1340
Vcash
p1336
sI1341
Vorelia
p1337
sI1342
Vnoach,
p1338
sI1343
S'uom'
p1339
sI1344
Volive,
p1340
sI1345
Vhercule
p1341
sI1346
Valdus,
p1342
sI1347
Vfreda,
p1343
sI1348
Veran
p1344
sI1349
Vcandace
p1345
sI1350
Vmarcel
p1346
sI1351
Vtymon
p1347
sI1352
Vjanean,
p1348
sI1353
Vgloria,
p1349
sI1354
Vtera,
p1350
sI1355
Vskipton,
p1351
sI1356
Vgiorgio
p1352
sI1357
Vdoctor
p1353
sI1358
Vthatch,
p1354
sI1359
Vhoratio
p1355
sI1360
Vjaymee,
p1356
sI1361
Vcarmelina
p1357
sI1362
Vstoddard,
p1358
sI1363
S'speech'
p1359
sI1364
Vruss,
p1360
sI1365
Vbeilul,
p1361
sI1366
Vmirabella,
p1362
sI1367
Vreminder
p1363
sI1368
Vlita
p1364
sI1369
Vgonzalo
p1365
sI1370
Vgiavani,
p1366
sI1371
Vfinish
p1367
sI1372
Vharrie
p1368
sI1373
Vfern,
p1369
sI1374
Vsheba,
p1370
sI1375
Vgiavani
p1371
sI1376
Vpaulita,
p1372
sI1377
Vrafaelia,
p1373
sI1378
Vpaolo,
p1374
sI1379
Vrozanne
p1375
sI1380
Vtheater
p1376
sI1381
Vpepillo,
p1377
sI1382
Vmargarete
p1378
sI1383
Vdarcey
p1379
sI1384
Vgilberto,
p1380
sI1385
Vjenda
p1381
sI1386
Vsherie
p1382
sI1387
Vbobbie,
p1383
sI1388
Vcrissie,
p1384
sI1389
Vemmalynn,
p1385
sI1390
Vnoam
p1386
sI1391
Vearl,
p1387
sI1392
Vtitos,
p1388
sI1393
Visis,
p1389
sI1394
Vriane,
p1390
sI1395
Vrobina
p1391
sI1396
Vsaundra,
p1392
sI1397
Vxymenes,
p1393
sI1398
Vlukas,
p1394
sI1399
S'baldwin'
p1395
sI1400
Vleanne,
p1396
sI1401
Vethyl
p1397
sI1402
Vsixteen
p1398
sI1403
Valthea,
p1399
sI1404
Vbryn
p1400
sI1405
Vtwyla
p1401
sI1406
Vskipton
p1402
sI1407
Vgoddard,
p1403
sI1408
Vtonya
p1404
sI1409
S'4'
sI1410
Vgwenneth
p1405
sI1411
S'ross'
p1406
sI1412
Vverney,
p1407
sI1413
Vbernardo
p1408
sI1414
Vkirby
p1409
sI1415
Vselma
p1410
sI1416
Vroddy,
p1411
sI1417
Vamy
p1412
sI1418
Vkatusha
p1413
sI1419
Vtheophyllus,
p1414
sI1420
Vrebecca
p1415
sI1421
S'furniture'
p1416
sI1422
Vverney
p1417
sI1423
Vdianemarie
p1418
sI1424
Vdickey,
p1419
sI1425
Vshelly,
p1420
sI1426
Vnanette
p1421
sI1427
Vbarnabe,
p1422
sI1428
Vmartina,
p1423
sI1429
Vregen,
p1424
sI1430
Vvernen
p1425
sI1431
Vleonardo,
p1426
sI1432
Vmorena
p1427
sI1433
Vaurea
p1428
sI1434
Vmelisande
p1429
sI1435
Vtwelve
p1430
sI1436
S'baillieu'
p1431
sI1437
Vkarlotte,
p1432
sI1438
Vdaniella,
p1433
sI1439
Vgabrila,
p1434
sI1440
Veddie
p1435
sI1441
Vzsazsa
p1436
sI1442
Vzarah
p1437
sI1443
Vguillermo
p1438
sI1444
Vkelcey
p1439
sI1445
Vjoan
p1440
sI1446
Vcristina
p1441
sI1447
Vsheril,
p1442
sI1448
Vaindrea,
p1443
sI1449
Vregina
p1444
sI1450
Vjerrylee
p1445
sI1451
Vcoral,
p1446
sI1452
Vcharleen
p1447
sI1453
Vnoon
p1448
sI1454
Vkara,
p1449
sI1455
Vdudley
p1450
sI1456
Vhour
p1451
sI1457
Vcarilyn
p1452
sI1458
Vmerrili,
p1453
sI1459
Vephraim
p1454
sI1460
Vmead
p1455
sI1461
Vfootball
p1456
sI1462
S'business'
p1457
sI1463
Vwyndham,
p1458
sI1464
Vchloris
p1459
sI1465
Vrhetta,
p1460
sI1466
Vcristin,
p1461
sI1467
Vjennette
p1462
sI1468
Vbarrie
p1463
sI1469
Vbaillie,
p1464
sI1470
Vcoreen,
p1465
sI1471
Vthrow
p1466
sI1472
Vsherill
p1467
sI1473
Von
p1468
sI1474
Vcelinka,
p1469
sI1475
Vok
p1470
sI1476
Vof
p1471
sI1477
Vcelisse,
p1472
sI1478
Vprunella
p1473
sI1479
Vcristen,
p1474
sI1480
Vniall
p1475
sI1481
S'west'
p1476
sI1482
Vtitos
p1477
sI1483
Vlynna,
p1478
sI1484
Vkalie
p1479
sI1485
Vshawn,
p1480
sI1486
Vcarey
p1481
sI1487
Vmarjorie
p1482
sI1488
Vdarren
p1483
sI1489
Vcrissy
p1484
sI1490
Vemlyn,
p1485
sI1491
Vwilley,
p1486
sI1492
Vtrip,
p1487
sI1493
S'area'
p1488
sI1494
Vronald,
p1489
sI1495
Varel
p1490
sI1496
Vthere
p1491
sI1497
Vshelly
p1492
sI1498
Vstart
p1493
sI1499
Vclaybourne,
p1494
sI1500
Vmissy
p1495
sI1501
Vadrian,
p1496
sI1502
Vterence,
p1497
sI1503
Vmadlin,
p1498
sI1504
Vkacie
p1499
sI1505
Vaida
p1500
sI1506
Vrorie
p1501
sI1507
Vnewton,
p1502
sI1508
Vstoddard
p1503
sI1509
Vwilla
p1504
sI1510
Vjanot
p1505
sI1511
Vnananne,
p1506
sI1512
Vwith
p1507
sI1513
S'october'
p1508
sI1514
Vhortense,
p1509
sI1515
Vuriah,
p1510
sI1516
Vhiro
p1511
sI1517
Vlorelei
p1512
sI1518
Vbessy
p1513
sI1519
Vmarna
p1514
sI1520
Vshauna
p1515
sI1521
Vhusein,
p1516
sI1522
Vlaverna
p1517
sI1523
Vruss
p1518
sI1524
Vminny
p1519
sI1525
Vzulema,
p1520
sI1526
Vapollo,
p1521
sI1527
Vuna,
p1522
sI1528
Vbud,
p1523
sI1529
Vselina
p1524
sI1530
Vestel,
p1525
sI1531
Vcreat
p1526
sI1532
Vania,
p1527
sI1533
Vam
p1528
sI1534
Vavery,
p1529
sI1535
Vorsa
p1530
sI1536
Vas
p1531
sI1537
Vlari,
p1532
sI1538
Vat
p1533
sI1539
Vguillermo,
p1534
sI1540
Vzsazsa,
p1535
sI1541
Vmargot,
p1536
sI1542
Vgenny
p1537
sI1543
Vagain
p1538
sI1544
Vyoga
p1539
sI1545
Vhector
p1540
sI1546
Vjanot,
p1541
sI1547
Vvickie
p1542
sI1548
Vmalvina,
p1543
sI1549
Vlenette,
p1544
sI1550
S'graduate'
p1545
sI1551
S'5'
sI1552
Vcarli,
p1546
sI1553
Vgenna
p1547
sI1554
Vyou
p1548
sI1555
Vtrash
p1549
sI1556
Vchristof
p1550
sI1557
Vchickie
p1551
sI1558
Vmadlin
p1552
sI1559
Vbrandi
p1553
sI1560
Vterri
p1554
sI1561
Vfilippa
p1555
sI1562
Vrhett
p1556
sI1563
Vkellen,
p1557
sI1564
Vnichol
p1558
sI1565
Vnikos
p1559
sI1566
Vrenae,
p1560
sI1567
Vanselm,
p1561
sI1568
Vdorisa
p1562
sI1569
Vberenice
p1563
sI1570
Vpinchas
p1564
sI1571
Vlanni,
p1565
sI1572
Vmickie,
p1566
sI1573
Vtwyla,
p1567
sI1574
Vpadraig
p1568
sI1575
Vpris,
p1569
sI1576
Valvina
p1570
sI1577
Vjerrilyn,
p1571
sI1578
Varianne
p1572
sI1579
Vsuzette,
p1573
sI1580
Vcarlie
p1574
sI1581
Vcleva,
p1575
sI1582
Vjeromy
p1576
sI1583
Vforget
p1577
sI1584
Vbilli,
p1578
sI1585
Vali
p1579
sI1586
Vdevina
p1580
sI1587
Vismail
p1581
sI1588
Vblancha
p1582
sI1589
S'15'
p1583
sI1590
Vgael,
p1584
sI1591
Vlilli,
p1585
sI1592
S'equipment'
p1586
sI1593
Vboris,
p1587
sI1594
Vcliff
p1588
sI1595
Vcresa
p1589
sI1596
Verminie
p1590
sI1597
Vbaillie
p1591
sI1598
S'thursday'
p1592
sI1599
Vtabbitha
p1593
sI1600
Vdaniella
p1594
sI1601
Vto
p1595
sI1602
Vnora
p1596
sI1603
S'program'
p1597
sI1604
Vatlante
p1598
sI1605
Vnorm
p1599
sI1606
Vebonee
p1600
sI1607
Vdevin,
p1601
sI1608
Vdonn,
p1602
sI1609
Vfar
p1603
sI1610
Vlianna
p1604
sI1611
Vemil,
p1605
sI1612
Vdonetta
p1606
sI1613
Vkirby,
p1607
sI1614
Vsephira
p1608
sI1615
Vhuey,
p1609
sI1616
Vfrederik
p1610
sI1617
Vjanette,
p1611
sI1618
Velene
p1612
sI1619
Vmallorie,
p1613
sI1620
Vtrixi,
p1614
sI1621
Valma
p1615
sI1622
Vworden
p1616
sI1623
Vkiersten
p1617
sI1624
Vjanith,
p1618
sI1625
Vclaudie,
p1619
sI1626
Vgiffard
p1620
sI1627
Vjehu,
p1621
sI1628
Valbert,
p1622
sI1629
Vlisa
p1623
sI1630
Vmorgan,
p1624
sI1631
Vlise
p1625
sI1632
Vwilber
p1626
sI1633
Vmaggie
p1627
sI1634
Vcorrect
p1628
sI1635
Vchrist,
p1629
sI1636
Vtressa,
p1630
sI1637
Vten
p1631
sI1638
Vblaire
p1632
sI1639
Vhalette
p1633
sI1640
Vmarmaduke,
p1634
sI1641
Vpast
p1635
sI1642
Vulises
p1636
sI1643
S'design'
p1637
sI1644
Vgeorgeanna
p1638
sI1645
Valphonse,
p1639
sI1646
Vreine
p1640
sI1647
Vgranville,
p1641
sI1648
Vjeremiah
p1642
sI1649
Vdasya,
p1643
sI1650
Vneddy
p1644
sI1651
Vwhat
p1645
sI1652
Vblinni,
p1646
sI1653
Vingemar,
p1647
sI1654
Vkalila,
p1648
sI1655
Vkarna
p1649
sI1656
S'microbiology'
p1650
sI1657
Vnixie,
p1651
sI1658
Vbuffy,
p1652
sI1659
Vpetrina,
p1653
sI1660
Vstormi,
p1654
sI1661
Varlie
p1655
sI1662
Vmavis,
p1656
sI1663
Vabdulkarim,
p1657
sI1664
Vrakel
p1658
sI1665
Vmaggi,
p1659
sI1666
Vsybilla
p1660
sI1667
Vcharmian,
p1661
sI1668
Vroby,
p1662
sI1669
Vhours
p1663
sI1670
S'street,'
p1664
sI1671
S'november'
p1665
sI1672
Vrikki,
p1666
sI1673
Vcathe
p1667
sI1674
Vnan,
p1668
sI1675
Vefram
p1669
sI1676
Vjuli,
p1670
sI1677
Verminia
p1671
sI1678
Vfergus
p1672
sI1679
Vcordelia
p1673
sI1680
Vrora
p1674
sI1681
Vagatha
p1675
sI1682
Vhettie,
p1676
sI1683
Vcristen
p1677
sI1684
Vvic
p1678
sI1685
Vshirline,
p1679
sI1686
Vgizela
p1680
sI1687
Vfamily
p1681
sI1688
Vfred,
p1682
sI1689
Vcleland,
p1683
sI1690
Vvin
p1684
sI1691
Vviv
p1685
sI1692
Vtab,
p1686
sI1693
Vabdel
p1687
sI1694
Vkalinda
p1688
sI1695
Vlyda
p1689
sI1696
Vvalida,
p1690
sI1697
Vede,
p1691
sI1698
Vtakes
p1692
sI1699
Vkittie
p1693
sI1700
Vmartynne
p1694
sI1701
Vtwo
p1695
sI1702
Vhirsch
p1696
sI1703
Vmorton,
p1697
sI1704
Vlaverna,
p1698
sI1705
Vbrandea
p1699
sI1706
Vcollette,
p1700
sI1707
Vdonni,
p1701
sI1708
Vpatty,
p1702
sI1709
Vfreda
p1703
sI1710
Vkarlee,
p1704
sI1711
Vdion
p1705
sI1712
Vlazaro
p1706
sI1713
Vkristos
p1707
sI1714
Vkirstin,
p1708
sI1715
Vtown
p1709
sI1716
Vaharon,
p1710
sI1717
Vacacia,
p1711
sI1718
Vvladimir
p1712
sI1719
Vdamien
p1713
sI1720
Vwaneta,
p1714
sI1721
Vwilona,
p1715
sI1722
Vtorr,
p1716
sI1723
Vberty
p1717
sI1724
Vnine
p1718
sI1725
Valix,
p1719
sI1726
Vmorgan
p1720
sI1727
Vmargalo,
p1721
sI1728
Vkirsten,
p1722
sI1729
Vleola
p1723
sI1730
Valyssa
p1724
sI1731
Vmarkos,
p1725
sI1732
Vlibbi,
p1726
sI1733
Vkristyn,
p1727
sI1734
Vmelvyn,
p1728
sI1735
Vkelsey,
p1729
sI1736
Vodie,
p1730
sI1737
Vcherin
p1731
sI1738
Vdulcinea,
p1732
sI1739
Vleonelle,
p1733
sI1740
Vcherie
p1734
sI1741
Vpatin,
p1735
sI1742
Vnorina
p1736
sI1743
Vrozanna,
p1737
sI1744
Vgino
p1738
sI1745
S'court'
p1739
sI1746
Vclint
p1740
sI1747
S'clarke'
p1741
sI1748
Vbarb,
p1742
sI1749
Vfawna,
p1743
sI1750
Vflorinda
p1744
sI1751
Vaurore,
p1745
sI1752
Vgisele
p1746
sI1753
Vkarlotta
p1747
sI1754
Vkaron,
p1748
sI1755
S'north'
p1749
sI1756
Vsidoney
p1750
sI1757
Vchristalle
p1751
sI1758
Vobadiah
p1752
sI1759
Vsabine
p1753
sI1760
Vcorrie,
p1754
sI1761
Vhoracio
p1755
sI1762
Vparwane,
p1756
sI1763
Voralle,
p1757
sI1764
Vsven
p1758
sI1765
Vadela,
p1759
sI1766
Vrosella,
p1760
sI1767
Vhermy,
p1761
sI1768
Vulrike
p1762
sI1769
Vmalena
p1763
sI1770
Va
sI1771
Vlinnie
p1764
sI1772
Vhannibal
p1765
sI1773
Vsusan
p1766
sI1774
Vcelene
p1767
sI1775
Vleese
p1768
sI1776
Vmarice
p1769
sI1777
Vmarlow
p1770
sI1778
Vkirstie
p1771
sI1779
Vfelicity
p1772
sI1780
Vpay
p1773
sI1781
Vkirstin
p1774
sI1782
Vsascha,
p1775
sI1783
Vharlene,
p1776
sI1784
Vthat's
p1777
sI1785
Vbrena,
p1778
sI1786
Vdasya
p1779
sI1787
Vleigh
p1780
sI1788
Vdon't
p1781
sI1789
S'september'
p1782
sI1790
Vmortimer,
p1783
sI1791
Vchicky
p1784
sI1792
Vsusan,
p1785
sI1793
Vcarmela
p1786
sI1794
Vjohannah,
p1787
sI1795
Vgertrudis
p1788
sI1796
Veadith
p1789
sI1797
Vkellina
p1790
sI1798
S'24'
p1791
sI1799
Vleanne
p1792
sI1800
S'26'
p1793
sI1801
S'27'
p1794
sI1802
S'20'
p1795
sI1803
S'21'
p1796
sI1804
S'22'
p1797
sI1805
S'23'
p1798
sI1806
Vabelard
p1799
sI1807
S'28'
p1800
sI1808
S'29'
p1801
sI1809
Valli
p1802
sI1810
Vkassey,
p1803
sI1811
Vpavia
p1804
sI1812
Vbirgitta,
p1805
sI1813
Visaac
p1806
sI1814
Vlottie,
p1807
sI1815
Vally
p1808
sI1816
Vteodora,
p1809
sI1817
Varlie,
p1810
sI1818
Vevening
p1811
sI1819
Vreturn
p1812
sI1820
Vgiorgio,
p1813
sI1821
Vbartolemo
p1814
sI1822
Vmatilda,
p1815
sI1823
Vbernette
p1816
sI1824
Vdeborah,
p1817
sI1825
Vdoug,
p1818
sI1826
Vrosalind
p1819
sI1827
Vrozanna
p1820
sI1828
Vodie
p1821
sI1829
Vcasie
p1822
sI1830
Vconstantine,
p1823
sI1831
Vkerrin
p1824
sI1832
Vcasia
p1825
sI1833
S'association'
p1826
sI1834
Vsamuella,
p1827
sI1835
Vcorrinne,
p1828
sI1836
Velric,
p1829
sI1837
Vricard,
p1830
sI1838
Vkalinda,
p1831
sI1839
Vsib,
p1832
sI1840
Vchaddy,
p1833
sI1841
Vkaleena,
p1834
sI1842
Vabdel,
p1835
sI1843
Vneil
p1836
sI1844
Voral,
p1837
sI1845
S'house'
p1838
sI1846
Vtiffany
p1839
sI1847
Vmortie,
p1840
sI1848
Vhersch,
p1841
sI1849
Vmeagan
p1842
sI1850
Vgilberto
p1843
sI1851
Vkeren,
p1844
sI1852
Vwillette
p1845
sI1853
Vrandal,
p1846
sI1854
Vgilberte
p1847
sI1855
Vrandolph
p1848
sI1856
Vgilberta
p1849
sI1857
Vgus
p1850
sI1858
Vmiquela,
p1851
sI1859
Vflower
p1852
sI1860
Vcarlen,
p1853
sI1861
S'psychology'
p1854
sI1862
Vsephira,
p1855
sI1863
Vzorina
p1856
sI1864
Vgera,
p1857
sI1865
Vmiguelita
p1858
sI1866
Vnealon
p1859
sI1867
Vresearch
p1860
sI1868
Vlois,
p1861
sI1869
Valvina,
p1862
sI1870
S'health'
p1863
sI1871
S'7'
sI1872
Vmeira
p1864
sI1873
Vkeeley,
p1865
sI1874
Vconstantin
p1866
sI1875
Vleland,
p1867
sI1876
Vlawrence
p1868
sI1877
S'friday'
p1869
sI1878
Vconstantia
p1870
sI1879
Vrickie
p1871
sI1880
Vwilber,
p1872
sI1881
Vkaja,
p1873
sI1882
Vdevinne,
p1874
sI1883
Vrikki
p1875
sI1884
Vdirk
p1876
sI1885
Vrandall
p1877
sI1886
S'laby'
p1878
sI1887
Vbeginning
p1879
sI1888
Vandrzej
p1880
sI1889
Vruperta,
p1881
sI1890
Vwally,
p1882
sI1891
Vlavinie
p1883
sI1892
Vroddie
p1884
sI1893
Vobadiah,
p1885
sI1894
Vfeed
p1886
sI1895
Vkris,
p1887
sI1896
Vmajor
p1888
sI1897
Vdina
p1889
sI1898
Vnorm,
p1890
sI1899
Vhorst,
p1891
sI1900
Vemma,
p1892
sI1901
Vrog,
p1893
sI1902
Velden
p1894
sI1903
Vlora
p1895
sI1904
Vdone
p1896
sI1905
Vpascal,
p1897
sI1906
Vevonne
p1898
sI1907
Vdonn
p1899
sI1908
Vmelva,
p1900
sI1909
Vtwenty
p1901
sI1910
Vnomi
p1902
sI1911
Vleighton
p1903
sI1912
Vskipp,
p1904
sI1913
Vgeorgeanna,
p1905
sI1914
Vhorst
p1906
sI1915
Vkarry,
p1907
sI1916
Vellen,
p1908
sI1917
Vstore
p1909
sI1918
Vvalentin,
p1910
sI1919
Vaudrye
p1911
sI1920
Vstephannie
p1912
sI1921
Vchicky,
p1913
sI1922
Vweber,
p1914
sI1923
Vcele,
p1915
sI1924
Vfox,
p1916
sI1925
Vkaron
p1917
sI1926
Vcybel
p1918
sI1927
Vcarleigh,
p1919
sI1928
Vblondell,
p1920
sI1929
Vmerrielle,
p1921
sI1930
S'recording'
p1922
sI1931
Vlibby
p1923
sI1932
Vellene
p1924
sI1933
Vdorelle
p1925
sI1934
Vshauna,
p1926
sI1935
Vjefry
p1927
sI1936
Vstefan,
p1928
sI1937
Vemlyn
p1929
sI1938
Vcharlotte
p1930
sI1939
Vcarolee,
p1931
sI1940
Vsanford,
p1932
sI1941
Vnellie,
p1933
sI1942
Vgale
p1934
sI1943
Vkara
p1935
sI1944
Vchandal
p1936
sI1945
Vsawyere
p1937
sI1946
Vmelva
p1938
sI1947
Vmoise
p1939
sI1948
Vbevvy,
p1940
sI1949
S'cardigan'
p1941
sI1950
Vrochester
p1942
sI1951
Vblaire,
p1943
sI1952
Vshelby
p1944
sI1953
Vtrip
p1945
sI1954
Vlin
p1946
sI1955
Vjuana,
p1947
sI1956
Vcresa,
p1948
sI1957
Vjerrylee,
p1949
sI1958
Valso
p1950
sI1959
Vlindsy,
p1951
sI1960
Vsebastiano
p1952
sI1961
Vclea,
p1953
sI1962
Vbobbie
p1954
sI1963
Vemmaline
p1955
sI1964
Vorton
p1956
sI1965
Vsherry
p1957
sI1966
Vemerson,
p1958
sI1967
Volag,
p1959
sI1968
Vkendal
p1960
sI1969
Vmirella
p1961
sI1970
Vplay
p1962
sI1971
Vcharleen,
p1963
sI1972
Vbrandea,
p1964
sI1973
Vfreddie
p1965
sI1974
Vroarke,
p1966
sI1975
Vrosetta,
p1967
sI1976
Vnova,
p1968
sI1977
Vmargalo
p1969
sI1978
Vsebastien,
p1970
sI1979
Vlaila
p1971
sI1980
Vdeane
p1972
sI1981
Vjulius,
p1973
sI1982
Vsibyl
p1974
sI1983
Vmaressa,
p1975
sI1984
Vki
p1976
sI1985
Vhumbert
p1977
sI1986
Vmegan,
p1978
sI1987
Vclean
p1979
sI1988
Vsibelle,
p1980
sI1989
Vbogdan,
p1981
sI1990
Vstaford
p1982
sI1991
Vvinnie
p1983
sI1992
Vchanna
p1984
sI1993
Vgizela,
p1985
sI1994
Vsaraann
p1986
sI1995
Vmadelyn,
p1987
sI1996
Vsuzi,
p1988
sI1997
Vcarlen
p1989
sI1998
Vleandra
p1990
sI1999
Vtheophyllus
p1991
sI2000
S'co-operative'
p1992
sI2001
Vorion,
p1993
sI2002
Vfine
p1994
sI2003
Vmoise,
p1995
sI2004
Vdanyelle,
p1996
sI2005
Vchiquita
p1997
sI2006
Vbelle,
p1998
sI2007
Vuta,
p1999
sI2008
Vrandy
p2000
sI2009
Vheloise,
p2001
sI2010
S'equity'
p2002
sI2011
S'8'
sI2012
Vluis
p2003
sI2013
Vdarwin
p2004
sI2014
Vnickie
p2005
sI2015
Vvinni,
p2006
sI2016
Vcissie,
p2007
sI2017
Vlorettalorna
p2008
sI2018
Vallen
p2009
sI2019
S'bouverie'
p2010
sI2020
Vquillan
p2011
sI2021
Vcaritta,
p2012
sI2022
Vjeanne
p2013
sI2023
Vtobe
p2014
sI2024
Vhewett,
p2015
sI2025
Vandie,
p2016
sI2026
Vmarleah
p2017
sI2027
Vflorette
p2018
sI2028
Vdante
p2019
sI2029
Vrinaldo
p2020
sI2030
Vnena,
p2021
sI2031
Varyn
p2022
sI2032
Vjacquelyn,
p2023
sI2033
Vkellie
p2024
sI2034
Valdus
p2025
sI2035
Vjena,
p2026
sI2036
Vfiorenze
p2027
sI2037
Vcelinka
p2028
sI2038
Vseventeen
p2029
sI2039
Vset
p2030
sI2040
S'priestley'
p2031
sI2041
Vermina
p2032
sI2042
Vlea
p2033
sI2043
Vbary
p2034
sI2044
Vbryn,
p2035
sI2045
Vmaximilian,
p2036
sI2046
Vjada
p2037
sI2047
Vaggi,
p2038
sI2048
Vsee
p2039
sI2049
Vbarb
p2040
sI2050
Vanatola,
p2041
sI2051
Vare
p2042
sI2052
Vblinny,
p2043
sI2053
Vconrad,
p2044
sI2054
Vallie
p2045
sI2055
Vwain
p2046
sI2056
S'mckay'
p2047
sI2057
Vcleland
p2048
sI2058
Vwyndham
p2049
sI2059
Vmovie
p2050
sI2060
Vplease
p2051
sI2061
Vmarcellina,
p2052
sI2062
Vgreg
p2053
sI2063
Vhold
p2054
sI2064
Vlorelle,
p2055
sI2065
S'muslim'
p2056
sI2066
Vmelisande,
p2057
sI2067
Vdani
p2058
sI2068
Vbrynn
p2059
sI2069
Vmelodee,
p2060
sI2070
Vmailbox
p2061
sI2071
Vcatharine
p2062
sI2072
Valli,
p2063
sI2073
Vvonny,
p2064
sI2074
Vanselma,
p2065
sI2075
S'c'
sI2076
Vlast
p2066
sI2077
Vrestaurant
p2067
sI2078
Vyelena,
p2068
sI2079
Vjennette,
p2069
sI2080
Vthor
p2070
sI2081
Vleanor
p2071
sI2082
Vedythe
p2072
sI2083
Vosgood,
p2073
sI2084
Vbaily,
p2074
sI2085
Vfyodor
p2075
sI2086
Vpatty
p2076
sI2087
Vdimitrios
p2077
sI2088
Vklarrisa
p2078
sI2089
Vcaroljean
p2079
sI2090
Vjeff
p2080
sI2091
Vbinny
p2081
sI2092
Vguendolen,
p2082
sI2093
Volle
p2083
sI2094
S'community'
p2084
sI2095
Vskipp
p2085
sI2096
Vanjela
p2086
sI2097
Vsammy
p2087
sI2098
Vtruda
p2088
sI2099
Vvan,
p2089
sI2100
Vailee,
p2090
sI2101
Vdevin
p2091
sI2102
Vreta
p2092
sI2103
Vvonny
p2093
sI2104
S'publishing'
p2094
sI2105
Vall
p2095
sI2106
Vdamaris,
p2096
sI2107
Vcreate
p2097
sI2108
Vteane
p2098
sI2109
Vmoina
p2099
sI2110
Vchange
p2100
sI2111
Vcollected
p2101
sI2112
Vmaggy,
p2102
sI2113
Vwait
p2103
sI2114
Vmitchel,
p2104
sI2115
Vpm
p2105
sI2116
Vrogers,
p2106
sI2117
Vflight
p2107
sI2118
S'counselling'
p2108
sI2119
Vcaleb
p2109
sI2120
Vdennie,
p2110
sI2121
S'dulcie'
p2111
sI2122
Vskip,
p2112
sI2123
Vsidoney,
p2113
sI2124
Vkathi
p2114
sI2125
Vfania
p2115
sI2126
Vpepi
p2116
sI2127
Vwhitney
p2117
sI2128
Vclaybourne
p2118
sI2129
Vsalomo
p2119
sI2130
Vavivah
p2120
sI2131
Vlegra
p2121
sI2132
Vcrystie
p2122
sI2133
Vdevi,
p2123
sI2134
Vmortie
p2124
sI2135
Vlissa,
p2125
sI2136
Vmadella
p2126
sI2137
Vmatch
p2127
sI2138
Vluciana
p2128
sI2139
Vlorrin,
p2129
sI2140
Vselina,
p2130
sI2141
Vleland
p2131
sI2142
Vardys,
p2132
sI2143
Vclarence,
p2133
sI2144
Vric,
p2134
sI2145
Vlynette
p2135
sI2146
Vammamaria,
p2136
sI2147
Vdarrell
p2137
sI2148
S'mcdonell'
p2138
sI2149
Vric
p2139
sI2150
Vianthe
p2140
sI2151
Vreggy,
p2141
sI2152
Vregen
p2142
sI2153
Vestel
p2143
sI2154
Vondrea
p2144
sI2155
Vshay
p2145
sI2156
Vread
p2146
sI2157
Vviole
p2147
sI2158
Vvaclav
p2148
sI2159
Vbrodie,
p2149
sI2160
S'9'
sI2161
Vbobine,
p2150
sI2162
Vanatol
p2151
sI2163
Vfredia
p2152
sI2164
Vamory,
p2153
sI2165
Vwilone
p2154
sI2166
Vmel,
p2155
sI2167
Vwilona
p2156
sI2168
Vmerissa,
p2157
sI2169
Vsibyl,
p2158
sI2170
Vcordelia,
p2159
sI2171
Vkristal,
p2160
sI2172
Vstacy
p2161
sI2173
Vfanni,
p2162
sI2174
Vdarrel,
p2163
sI2175
Vjanean
p2164
sI2176
Vmavis
p2165
sI2177
Verastus,
p2166
sI2178
Vgavra
p2167
sI2179
Vrafaelia
p2168
sI2180
Vrodolphe
p2169
sI2181
Verminie,
p2170
sI2182
Vdaren
p2171
sI2183
Visis
p2172
sI2184
Vreginald
p2173
sI2185
Vguendolen
p2174
sI2186
Vflorian
p2175
sI2187
Vothella,
p2176
sI2188
Vfelicity,
p2177
sI2189
Vconstantia,
p2178
sI2190
Vsalvatore
p2179
sI2191
S'chaplains'
p2180
sI2192
S'chemistry'
p2181
sI2193
S'self'
p2182
sI2194
Vleone
p2183
sI2195
Vkarel,
p2184
sI2196
Vantonie,
p2185
sI2197
Vrandy,
p2186
sI2198
Vardenia
p2187
sI2199
Vquarters
p2188
sI2200
Vbancroft
p2189
sI2201
Vvivyan
p2190
sI2202
Vclementia,
p2191
sI2203
Vsheena,
p2192
sI2204
Verika,
p2193
sI2205
Vsergio,
p2194
sI2206
Vtoma,
p2195
sI2207
Vmyrtia
p2196
sI2208
Vroscoe,
p2197
sI2209
Vtania
p2198
sI2210
Vgrier,
p2199
sI2211
Vstacie,
p2200
sI2212
Vkaleena
p2201
sI2213
Vandria
p2202
sI2214
Vmelloney,
p2203
sI2215
Vlocation
p2204
sI2216
Vlisha
p2205
sI2217
Vhuey
p2206
sI2218
Vnorina,
p2207
sI2219
Vtillie
p2208
sI2220
Vmarco
p2209
sI2221
S'march'
p2210
sI2222
Vannalyse
p2211
sI2223
Vjemie
p2212
sI2224
Vhercule,
p2213
sI2225
Vclyde,
p2214
sI2226
Vprudi,
p2215
sI2227
Vwerner,
p2216
sI2228
Vmarcy
p2217
sI2229
Vikey
p2218
sI2230
Vmonika
p2219
sI2231
Vnanette,
p2220
sI2232
Vgeorges
p2221
sI2233
Vambrose
p2222
sI2234
Vmarian
p2223
sI2235
Vsabine,
p2224
sI2236
Vdavie
p2225
sI2237
Vdarrell,
p2226
sI2238
Vambrosi
p2227
sI2239
Vveronike
p2228
sI2240
Vcollect
p2229
sI2241
Vcara,
p2230
sI2242
Vmyles,
p2231
sI2243
Valexandra
p2232
sI2244
Vulrich
p2233
sI2245
Vdonni
p2234
sI2246
S'mathematical'
p2235
sI2247
S'doherty'
p2236
sI2248
Vchantalle
p2237
sI2249
Vcaroleen
p2238
sI2250
Vbrena
p2239
sI2251
Vsome
p2240
sI2252
Vback
p2241
sI2253
Vjoceline,
p2242
sI2254
Vdryke,
p2243
sI2255
Vmurial,
p2244
sI2256
Vleone,
p2245
sI2257
Valphonse
p2246
sI2258
Vaphrodite,
p2247
sI2259
Vgracie
p2248
sI2260
Vpetronille
p2249
sI2261
S'veterinary'
p2250
sI2262
Vlara
p2251
sI2263
Vvivyanne,
p2252
sI2264
Vgwenneth,
p2253
sI2265
Vmarcellina
p2254
sI2266
Vlari
p2255
sI2267
Vpeg
p2256
sI2268
Vkarmen,
p2257
sI2269
Vlucie,
p2258
sI2270
Vbe
p2259
sI2271
Vdanya
p2260
sI2272
Vdyson,
p2261
sI2273
Vtremayne,
p2262
sI2274
Vkelsey
p2263
sI2275
Vorly
p2264
sI2276
Vgera
p2265
sI2277
Vlasts
p2266
sI2278
Vglorianna,
p2267
sI2279
Vothella
p2268
sI2280
Vby
p2269
sI2281
Vbartolemo,
p2270
sI2282
Vbrody,
p2271
sI2283
Vfaith
p2272
sI2284
Vconrad
p2273
sI2285
Vshina
p2274
sI2286
S'plaza'
p2275
sI2287
Vhinda,
p2276
sI2288
S'melbourne'
p2277
sI2289
Vtalia,
p2278
sI2290
Vann,
p2279
sI2291
Vbarnabe
p2280
sI2292
Vlilias
p2281
sI2293
Vdarbie,
p2282
sI2294
Vrana,
p2283
sI2295
Vjoya,
p2284
sI2296
Vikey,
p2285
sI2297
S'block'
p2286
sI2298
Vfern
p2287
sI2299
Vsanford
p2288
sI2300
Vkassie
p2289
sI2301
Vlora,
p2290
sI2302
Vvisit
p2291
sI2303
Vmaudie
p2292
sI2304
Vzola,
p2293
sI2305
S'services'
p2294
sI2306
S'carlton'
p2295
sI2307
Vtobe,
p2296
sI2308
Vdylan,
p2297
sI2309
Vhalimeda,
p2298
sI2310
Vfrance
p2299
sI2311
Vjobina,
p2300
sI2312
Vsven,
p2301
sI2313
Valoysia
p2302
sI2314
Vjamima
p2303
sI2315
Vangelo
p2304
sI2316
Vandy
p2305
sI2317
Vulrica,
p2306
sI2318
Vchloris,
p2307
sI2319
Vannabella,
p2308
sI2320
Vjohnathon
p2309
sI2321
Vthornton,
p2310
sI2322
Van
p2311
sI2323
S'parkville'
p2312
sI2324
Vboyd
p2313
sI2325
Vbaird,
p2314
sI2326
Vmirabella
p2315
sI2327
Vjacky
p2316
sI2328
Vvibhu
p2317
sI2329
Vreed
p2318
sI2330
Vsteve,
p2319
sI2331
Vkarlie
p2320
sI2332
Vdaloris
p2321
sI2333
Vmicheil
p2322
sI2334
Vkellia
p2323
sI2335
Vizaak,
p2324
sI2336
Vpaolo
p2325
sI2337
Vuta
p2326
sI2338
Vchelsey
p2327
sI2339
Vup
p2328
sI2340
Vus
p2329
sI2341
Volenka
p2330
sI2342
Vrow,
p2331
sI2343
Valarm
p2332
sI2344
Vmandie,
p2333
sI2345
Vgeorges,
p2334
sI2346
Vwestleigh,
p2335
sI2347
Vbernelle,
p2336
sI2348
Vginnie
p2337
sI2349
Vclaudetta
p2338
sI2350
Vfrance,
p2339
sI2351
Vscarlet
p2340
sI2352
Vsollie
p2341
sI2353
Vlilias,
p2342
sI2354
Vwilley
p2343
sI2355
Vcristine
p2344
sI2356
Vmadella,
p2345
sI2357
Vsashenka,
p2346
sI2358
S'cafe'
p2347
sI2359
Vflorencia,
p2348
sI2360
Vlurleen
p2349
sI2361
Vhandegg
p2350
sI2362
Vneil,
p2351
sI2363
Vgwennie
p2352
sI2364
Vnan
p2353
sI2365
Vstanton,
p2354
sI2366
Vvic,
p2355
sI2367
Vyigal
p2356
sI2368
Vadnan,
p2357
sI2369
Vgiffard,
p2358
sI2370
Vgre
p2359
sI2371
S'electrical'
p2360
sI2372
Vellen
p2361
sI2373
Vsimonne
p2362
sI2374
Vreine,
p2363
sI2375
S'department'
p2364
sI2376
Vmerrile,
p2365
sI2377
Vsaundra
p2366
sI2378
Vevvy,
p2367
sI2379
Vklarrisa,
p2368
sI2380
Vamanda,
p2369
sI2381
Vmerlina
p2370
sI2382
Vvirgilio,
p2371
sI2383
Vlucie
p2372
sI2384
Vbianca
p2373
sI2385
Vmyrtia,
p2374
sI2386
Vcrissie
p2375
sI2387
Vgenvieve
p2376
sI2388
Vlane
p2377
sI2389
Vgwenni,
p2378
sI2390
Vvick
p2379
sI2391
Vlazaro,
p2380
sI2392
Vsawyer
p2381
sI2393
Vmerrilee
p2382
sI2394
Vedward,
p2383
sI2395
Vrebecca,
p2384
sI2396
Velle,
p2385
sI2397
Vashton
p2386
sI2398
S'hollyock'
p2387
sI2399
Vhello
p2388
sI2400
Veda
p2389
sI2401
Vhappy,
p2390
sI2402
Vede
p2391
sI2403
Vmargarete,
p2392
sI2404
Vnichol,
p2393
sI2405
Vcynthia
p2394
sI2406
S'thomas'
p2395
sI2407
Vcarrie,
p2396
sI2408
Vsteve
p2397
sI2409
Vjean-christophe
p2398
sI2410
Vhelen-elizabeth,
p2399
sI2411
Vjenda,
p2400
sI2412
Vdarcey,
p2401
sI2413
Vgo
p2402
sI2414
Vlyndsie
p2403
sI2415
Vfyodor,
p2404
sI2416
Valmira,
p2405
sI2417
Vteodora
p2406
sI2418
Vkimmo,
p2407
sI2419
Vdulsea,
p2408
sI2420
Vmarylin,
p2409
sI2421
Vlilli
p2410
sI2422
Vmosque
p2411
sI2423
S'metallurgy'
p2412
sI2424
Voclock
p2413
sI2425
S'kwong'
p2414
sI2426
Vjakob
p2415
sI2427
Veloisa
p2416
sI2428
Veloise
p2417
sI2429
Vmaiga
p2418
sI2430
Voutside
p2419
sI2431
Vmadelaine,
p2420
sI2432
Vlibbi
p2421
sI2433
Vbartolomeo,
p2422
sI2434
Vwhitney,
p2423
sI2435
Vemyle
p2424
sI2436
Vwash,
p2425
sI2437
Visaiah
p2426
sI2438
Vdyana,
p2427
sI2439
Vpoppy,
p2428
sI2440
Vchariot,
p2429
sI2441
Volaf
p2430
sI2442
Volag
p2431
sI2443
Vscarlet,
p2432
sI2444
Vgwendolyn,
p2433
sI2445
Vmichael
p2434
sI2446
Vcorly,
p2435
sI2447
Vtry
p2436
sI2448
Vjulius
p2437
sI2449
Vjamima,
p2438
sI2450
Vglenna
p2439
sI2451
Vcar
p2440
sI2452
Vmichaella,
p2441
sI2453
Vclementine,
p2442
sI2454
Vleonardo
p2443
sI2455
Vconsolata,
p2444
sI2456
Vgunvor,
p2445
sI2457
Vclaudie
p2446
sI2458
Vbary,
p2447
sI2459
Vhalette,
p2448
sI2460
S'video'
p2449
sI2461
Vtabbie
p2450
sI2462
Vcarli
p2451
sI2463
Vpris
p2452
sI2464
Vvictor
p2453
sI2465
Valix
p2454
sI2466
Vgunvor
p2455
sI2467
Vkris
p2456
sI2468
Vmaryjo
p2457
sI2469
Vginni
p2458
sI2470
Vlorianne,
p2459
sI2471
Vignacius,
p2460
sI2472
Vstephani,
p2461
sI2473
Vdorelle,
p2462
sI2474
Vcele
p2463
sI2475
Vfranklyn
p2464
sI2476
Vexercise
p2465
sI2477
Vpeggi
p2466
sI2478
S'lee'
p2467
sI2479
Vrosella
p2468
sI2480
Vmellisa
p2469
sI2481
Vcarlie,
p2470
sI2482
Vlaraine
p2471
sI2483
Vlet
p2472
sI2484
Varyn,
p2473
sI2485
Vhobart
p2474
sI2486
Vnels,
p2475
sI2487
S'safer'
p2476
sI2488
Vfifteen
p2477
sI2489
Vjakob,
p2478
sI2490
Velnora
p2479
sI2491
Vvickie,
p2480
sI2492
Vnealon,
p2481
sI2493
Vaggi
p2482
sI2494
Vamie,
p2483
sI2495
Vmicky,
p2484
sI2496
Vmirella,
p2485
sI2497
Viain,
p2486
sI2498
Vcobby
p2487
sI2499
Vclementine
p2488
sI2500
Vkaspar,
p2489
sI2501
Vnahum
p2490
sI2502
Vally,
p2491
sI2503
Vmoina,
p2492
sI2504
Vwin
p2493
sI2505
Vleighton,
p2494
sI2506
Vetti
p2495
sI2507
Vmanny
p2496
sI2508
Verastus
p2497
sI2509
Vcarree,
p2498
sI2510
S'oval'
p2499
sI2511
Vapply
p2500
sI2512
Vdeny,
p2501
sI2513
Venglebart,
p2502
sI2514
Vianthe,
p2503
sI2515
Vcatriona,
p2504
sI2516
Vandreas
p2505
sI2517
Vfrom
p2506
sI2518
Vkenneth
p2507
sI2519
Vjeromy,
p2508
sI2520
Vaindrea
p2509
sI2521
S'physics'
p2510
sI2522
Vninetta
p2511
sI2523
S'next'
p2512
sI2524
Vinez
p2513
sI2525
Veleven
p2514
sI2526
Vanselm
p2515
sI2527
Vemeline
p2516
sI2528
Vbutler
p2517
sI2529
Vletta
p2518
sI2530
Vvinny
p2519
sI2531
Vemmery,
p2520
sI2532
Vdenys
p2521
sI2533
Vallyn
p2522
sI2534
Vaphrodite
p2523
sI2535
Vcorey,
p2524
sI2536
Vdidn't
p2525
sI2537
Vjada,
p2526
sI2538
Vamalia
p2527
sI2539
Vthatch
p2528
sI2540
Vconnie
p2529
sI2541
Viain
p2530
sI2542
Velie,
p2531
sI2543
S'this'
p2532
sI2544
Valia
p2533
sI2545
Vram
p2534
sI2546
Vpoul
p2535
sI2547
Vemerson
p2536
sI2548
Vderek,
p2537
sI2549
Vcrista,
p2538
sI2550
Vterrie,
p2539
sI2551
Vwalter,
p2540
sI2552
Vtisha,
p2541
sI2553
Vetta
p2542
sI2554
Vram,
p2543
sI2555
Vgeorgeta,
p2544
sI2556
Vetty
p2545
sI2557
Vtab
p2546
sI2558
Vodette
p2547
sI2559
Vmilicent
p2548
sI2560
Vmel
p2549
sI2561
Vpadraig,
p2550
sI2562
Vjehu
p2551
sI2563
Vbernadene
p2552
sI2564
Vkial
p2553
sI2565
Vkiah
p2554
sI2566
Vsix
p2555
sI2567
Vpepillo
p2556
sI2568
Vmicheil,
p2557
sI2569
Vlenore
p2558
sI2570
Vcamille
p2559
sI2571
Vsib
p2560
sI2572
Vsig
p2561
sI2573
Vgladis,
p2562
sI2574
Vodetta,
p2563
sI2575
Vclair,
p2564
sI2576
Vgavrielle,
p2565
sI2577
Vreynold,
p2566
sI2578
Vrod,
p2567
sI2579
Vattend
p2568
sI2580
Vvikki,
p2569
sI2581
S'stop'
p2570
sI2582
Vkristel
p2571
sI2583
Vhusein
p2572
sI2584
Vronald
p2573
sI2585
Vkenn,
p2574
sI2586
Vstandford
p2575
sI2587
Vdaloris,
p2576
sI2588
Vreed,
p2577
sI2589
Vkarlie,
p2578
sI2590
Verika
p2579
sI2591
Vbabara
p2580
sI2592
S'engineering'
p2581
sI2593
Vcaryn,
p2582
sI2594
Vemelda
p2583
sI2595
Vertha
p2584
sI2596
Varvy,
p2585
sI2597
Vignaz,
p2586
sI2598
Vbaird
p2587
sI2599
Vmartina
p2588
sI2600
Vemeline,
p2589
sI2601
Vtallie
p2590
sI2602
Vvivyanne
p2591
sI2603
Varne,
p2592
sI2604
Vissy
p2593
sI2605
Vchristie,
p2594
sI2606
Vclarissa
p2595
sI2607
Velie
p2596
sI2608
Vricard
p2597
sI2609
Vclarisse
p2598
sI2610
Vmoria
p2599
sI2611
Vlesley
p2600
sI2612
Vbinny,
p2601
sI2613
Vrutter
p2602
sI2614
Vjoanne
p2603
sI2615
Vmikako
p2604
sI2616
Vdaren,
p2605
sI2617
S'agricultural'
p2606
sI2618
Vcharlena
p2607
sI2619
Vdavina,
p2608
sI2620
Vworthington
p2609
sI2621
Vhunter
p2610
sI2622
S'1'
sI2623
Vmichael,
p2611
sI2624
Vantonius
p2612
sI2625
Vtyrone
p2613
sI2626
S'biomedical'
p2614
sI2627
Vguillemette,
p2615
sI2628
Vrabi
p2616
sI2629
Vdorothy,
p2617
sI2630
Vetti,
p2618
sI2631
Vweber
p2619
sI2632
Vselma,
p2620
sI2633
Vrandal
p2621
sI2634
Vgusella,
p2622
sI2635
S'practice'
p2623
sI2636
S'newman'
p2624
sI2637
Vnady
p2625
sI2638
Vrori,
p2626
sI2639
Vlenore,
p2627
sI2640
Vjoslyn,
p2628
sI2641
Vbilli
p2629
sI2642
S'february'
p2630
sI2643
Vdanyette
p2631
sI2644
Vhollie
p2632
sI2645
Vpersis
p2633
sI2646
Vbetta
p2634
sI2647
Vboyd,
p2635
sI2648
Vbabara,
p2636
sI2649
Vbills
p2637
sI2650
Vtray
p2638
sI2651
Vquintin
p2639
sI2652
Vjean-lou
p2640
sI2653
Vkatlin,
p2641
sI2654
Vkinna,
p2642
sI2655
Vteodoor
p2643
sI2656
Vfran,
p2644
sI2657
Vtrescha
p2645
sI2658
Vtull,
p2646
sI2659
Vbooks
p2647
sI2660
Vthirteen
p2648
sI2661
Vbrodie
p2649
sI2662
Vmorton
p2650
sI2663
S'sexual'
p2651
sI2664
Vsandy
p2652
sI2665
Vpepi,
p2653
sI2666
Vbutch
p2654
sI2667
Vlance,
p2655
sI2668
Vmerola,
p2656
sI2669
Viseabal,
p2657
sI2670
Vreboot
p2658
sI2671
Vbancroft,
p2659
sI2672
Vhervey,
p2660
sI2673
Vdanie
p2661
sI2674
Vfran
p2662
sI2675
S'lecture'
p2663
sI2676
Vjobina
p2664
sI2677
Vallie,
p2665
sI2678
Vevonne,
p2666
sI2679
Vmath
p2667
sI2680
Vricki
p2668
sI2681
S'harold'
p2669
sI2682
Videlle
p2670
sI2683
Vfrank
p2671
sI2684
Vharriett
p2672
sI2685
Vallis,
p2673
sI2686
Vlorelle
p2674
sI2687
Vfourteen
p2675
sI2688
Vjill
p2676
sI2689
Vashleigh,
p2677
sI2690
Vgiraldo
p2678
sI2691
Vcristina,
p2679
sI2692
Vaaron
p2680
sI2693
Vberchtold,
p2681
sI2694
Vkristyn
p2682
sI2695
Vestrellita
p2683
sI2696
Vtitus,
p2684
sI2697
Vivor
p2685
sI2698
Vlindsy
p2686
sI2699
Vrivalee,
p2687
sI2700
Vadrian
p2688
sI2701
Vrick,
p2689
sI2702
Vcherida
p2690
sI2703
S'south'
p2691
sI2704
Vdani,
p2692
sI2705
Vexam
p2693
sI2706
Vmarian,
p2694
sI2707
Vbars
p2695
sI2708
Vdonetta,
p2696
sI2709
Vconney,
p2697
sI2710
Vreggie
p2698
sI2711
S'art'
p2699
sI2712
Vlurleen,
p2700
sI2713
Vkittie,
p2701
sI2714
S'management'
p2702
sI2715
Vbritani
p2703
sI2716
Vgerold
p2704
sI2717
Vgino,
p2705
sI2718
Vharmon,
p2706
sI2719
Vsystem
p2707
sI2720
Velric
p2708
sI2721
Vbevvy
p2709
sI2722
Vannalyse,
p2710
sI2723
Vshanna
p2711
sI2724
Vbritaney
p2712
sI2725
Vximenez,
p2713
sI2726
Vkendal,
p2714
sI2727
Vjustin,
p2715
sI2728
Vmellisa,
p2716
sI2729
Vjule
p2717
sI2730
Vwoodie
p2718
sI2731
Vjuli
p2719
sI2732
Vdorolice,
p2720
sI2733
Vmegan
p2721
sI2734
Vmoshe,
p2722
sI2735
Vgodfry
p2723
sI2736
Vlorettalorna,
p2724
sI2737
S'july'
p2725
sI2738
Venglebart
p2726
sI2739
Vjoslyn
p2727
sI2740
Vinigo,
p2728
sI2741
Vcharmian
p2729
sI2742
Vbirgitta
p2730
sI2743
S'eyecare'
p2731
sI2744
Vcollette
p2732
sI2745
Vkissie
p2733
sI2746
Vbard
p2734
sI2747
Vkiah,
p2735
sI2748
Vgerold,
p2736
sI2749
Veugenie,
p2737
sI2750
Vkellen
p2738
sI2751
Vbertha
p2739
sI2752
Vjacquelyn
p2740
sI2753
Vhave
p2741
sI2754
Vneed
p2742
sI2755
S'redmond'
p2743
sI2756
Vromonda,
p2744
sI2757
Vshandee
p2745
sI2758
Vmalena,
p2746
sI2759
Vstanfield
p2747
sI2760
Vlenee
p2748
sI2761
Vdallas
p2749
sI2762
S'babel'
p2750
sI2763
Vchantal,
p2751
sI2764
Vroddie,
p2752
sI2765
Vluisa
p2753
sI2766
Vmeeting
p2754
sI2767
Vabbie
p2755
sI2768
Vizaak
p2756
sI2769
Vlulita,
p2757
sI2770
Vissy,
p2758
sI2771
S'optometry'
p2759
sI2772
Vmarianna,
p2760
sI2773
Valton
p2761
sI2774
Vflorette,
p2762
sI2775
Vrodger,
p2763
sI2776
Vfletch,
p2764
sI2777
Vrorie,
p2765
sI2778
Veight
p2766
sI2779
Vshamus
p2767
sI2780
Vsrinivas,
p2768
sI2781
Vwake,
p2769
sI2782
Vsuzette
p2770
sI2783
Vpayment
p2771
sI2784
Vmurial
p2772
sI2785
Vcellphone
p2773
sI2786
Vdeny
p2774
sI2787
Vabelard,
p2775
sI2788
Vsheba
p2776
sI2789
Vnoam,
p2777
sI2790
Vallyn,
p2778
sI2791
Vtremayne
p2779
sI2792
Vnickey,
p2780
sI2793
Vlula,
p2781
sI2794
Vclaudina
p2782
sI2795
Vjohnathon,
p2783
sI2796
Vmissy,
p2784
sI2797
Vdena
p2785
sI2798
Vluis,
p2786
sI2799
Vwaverley
p2787
sI2800
Vwilfrid,
p2788
sI2801
Vchancey
p2789
sI2802
Vquigman
p2790
sI2803
Vkayley
p2791
sI2804
Vdorothy
p2792
sI2805
Vbobine
p2793
sI2806
Vmugsy
p2794
sI2807
Vgracie,
p2795
sI2808
Vperla
p2796
sI2809
Vcatlaina
p2797
sI2810
Vjan
p2798
sI2811
Vgus,
p2799
sI2812
Vdurand
p2800
sI2813
Veadith,
p2801
sI2814
Vsybil,
p2802
sI2815
Vgertrudis,
p2803
sI2816
Vmillisent,
p2804
sI2817
Vmegen,
p2805
sI2818
Vboris
p2806
sI2819
Vcaroljean,
p2807
sI2820
Vadara,
p2808
sI2821
Vlistened
p2809
sI2822
Vfreddie,
p2810
sI2823
Vandreas,
p2811
sI2824
Vsilas
p2812
sI2825
Vpierre,
p2813
sI2826
Vstavros
p2814
sI2827
Vkit,
p2815
sI2828
Vgrethel
p2816
sI2829
Vmarleah,
p2817
sI2830
Vira
p2818
sI2831
Vhelen-elizabeth
p2819
sI2832
Valeck
p2820
sI2833
Vmelodee
p2821
sI2834
Vcherry,
p2822
sI2835
Vallis
p2823
sI2836
Vtitus
p2824
sI2837
Vlurette
p2825
sI2838
Vripley
p2826
sI2839
Vmariette,
p2827
sI2840
Vmerrilee,
p2828
sI2841
Vkatheleen
p2829
sI2842
Vjo,
p2830
sI2843
Vgoddard
p2831
sI2844
Valoisia
p2832
sI2845
Vrobinett,
p2833
sI2846
Vdevora
p2834
sI2847
Vmufinella
p2835
sI2848
Vhedda,
p2836
sI2849
Vmelvyn
p2837
sI2850
Vcarey,
p2838
sI2851
Vlibby,
p2839
sI2852
Vstate
p2840
sI2853
Vashleigh
p2841
sI2854
Vripley,
p2842
sI2855
Vmart,
p2843
sI2856
Vethel,
p2844
sI2857
Vjenica
p2845
sI2858
Vjoya
p2846
sI2859
Vconstantin,
p2847
sI2860
Vnickie,
p2848
sI2861
Vmadelyn
p2849
sI2862
Vmada,
p2850
sI2863
Vken
p2851
sI2864
Vends
p2852
sI2865
Vjanet
p2853
sI2866
Vregina,
p2854
sI2867
Vclint,
p2855
sI2868
Vaddie
p2856
sI2869
Vmelloney
p2857
sI2870
S'courtyard'
p2858
sI2871
Vjob
p2859
sI2872
Vromona,
p2860
sI2873
Vbelinda
p2861
sI2874
Vselene
p2862
sI2875
Vcliff,
p2863
sI2876
Vodelia,
p2864
sI2877
Vselena
p2865
sI2878
S'garden'
p2866
sI2879
Vtonia,
p2867
sI2880
Vjoao
p2868
sI2881
Vcory,
p2869
sI2882
Vleigh,
p2870
sI2883
Vmaggi
p2871
sI2884
Vingemar
p2872
sI2885
Vgoldia
p2873
sI2886
Vwenda,
p2874
sI2887
Vcarl,
p2875
sI2888
S'april'
p2876
sI2889
Vdolorita
p2877
sI2890
Vmaggy
p2878
sI2891
Vconstantine
p2879
sI2892
Vgavrielle
p2880
sI2893
Vpaolina
p2881
sI2894
Vstillman,
p2882
sI2895
Vnate,
p2883
sI2896
Vdallas,
p2884
sI2897
S'tuesday'
p2885
sI2898
Vharmonie
p2886
sI2899
Vprunella,
p2887
sI2900
Vharmonia
p2888
sI2901
Vlorrin
p2889
sI2902
Vcy
p2890
sI2903
Volia,
p2891
sI2904
Vwildon,
p2892
sI2905
Vheloise
p2893
sI2906
Vjenica,
p2894
sI2907
Vwarner,
p2895
sI2908
Valaa,
p2896
sI2909
Vit's
p2897
sI2910
Vdarrel
p2898
sI2911
Vtrudey,
p2899
sI2912
Vvick,
p2900
sI2913
Vnellie
p2901
sI2914
Vedythe,
p2902
sI2915
Vlucita
p2903
sI2916
Vkirstie,
p2904
sI2917
Vhinda
p2905
sI2918
S'bbq'
p2906
sI2919
Vmillisent
p2907
sI2920
Vtray,
p2908
sI2921
Vfinishes
p2909
sI2922
Vdelinda,
p2910
sI2923
Vquintin,
p2911
sI2924
Vbrenna,
p2912
sI2925
Vnickey
p2913
sI2926
Vkeren
p2914
sI2927
Vdevinne
p2915
sI2928
S'general'
p2916
sI2929
Vmilissent
p2917
sI2930
Vlinnie,
p2918
sI2931
Vbradly
p2919
sI2932
Vmargeaux
p2920
sI2933
Vlanna
p2921
sI2934
Vmickie
p2922
sI2935
Vlanni
p2923
sI2936
Vmelba
p2924
sI2937
Vaugusta
p2925
sI2938
Vwill
p2926
sI2939
Vmeredith
p2927
sI2940
Vcarole
p2928
sI2941
Vcrissy,
p2929
sI2942
Vsebastien
p2930
sI2943
Vmaynord
p2931
sI2944
Vjeanette
p2932
sI2945
Vfreeman
p2933
sI2946
Vvi
p2934
sI2947
Vbernelle
p2935
sI2948
Vavi
p2936
sI2949
Vguillemette
p2937
sI2950
Vlanna,
p2938
sI2951
Vantonino,
p2939
sI2952
Vrosalynd,
p2940
sI2953
Vconney
p2941
sI2954
Vpauly
p2942
sI2955
Vlazlo,
p2943
sI2956
Vbobette,
p2944
sI2957
Vquinlan,
p2945
sI2958
Vdina,
p2946
sI2959
Vyetty,
p2947
sI2960
Vpauli
p2948
sI2961
Vparty
p2949
sI2962
Veugenie
p2950
sI2963
Vpaula
p2951
sI2964
Vincorrect
p2952
sI2965
Vvin,
p2953
sI2966
Vkimberlee
p2954
sI2967
S'raymond'
p2955
sI2968
Vberty,
p2956
sI2969
Vmaudie,
p2957
sI2970
Vneville,
p2958
sI2971
Viago
p2959
sI2972
Vchristofer
p2960
sI2973
Vsaraann,
p2961
sI2974
S'student'
p2962
sI2975
Vsuzi
p2963
sI2976
Vpaula,
p2964
sI2977
Varabel,
p2965
sI2978
Vkimberley
p2966
sI2979
Vpaycheck
p2967
sI2980
Voff
p2968
sI2981
Vantonie
p2969
sI2982
Vi
sI2983
Vharmonie,
p2970
sI2984
Voneida
p2971
sI2985
Vtheodor
p2972
sI2986
Vthor,
p2973
sI2987
S'biosciences'
p2974
sI2988
Vcollin
p2975
sI2989
Vposition
p2976
sI2990
Velene,
p2977
sI2991
Vconstanta
p2978
sI2992
Vperceval,
p2979
sI2993
Vignatius
p2980
sI2994
Vdollie
p2981
sI2995
Vcarrie
p2982
sI2996
Vgeorgeta
p2983
sI2997
Vcrista
p2984
sI2998
Vkyrstin
p2985
sI2999
Vnanon
p2986
sI3000
S'clinic'
p2987
sI3001
Vfishing
p2988
sI3002
Vandrzej,
p2989
sI3003
Vritchie
p2990
sI3004
Vlaurel
p2991
sI3005
Vnicky
p2992
sI3006
Vkarrah,
p2993
sI3007
Vdenys,
p2994
sI3008
Vtraci,
p2995
sI3009
Vyonina
p2996
sI3010
Vday
p2997
sI3011
Vshelby,
p2998
sI3012
Vclyde
p2999
sI3013
Vnoach
p3000
sI3014
Vjohannah
p3001
sI3015
Vgeorge,
p3002
sI3016
Vbela
p3003
sI3017
Vhomework
p3004
sI3018
Vjerald,
p3005
sI3019
Vlilian,
p3006
sI3020
Vtymothy,
p3007
sI3021
Vstevie,
p3008
sI3022
S'room,'
p3009
sI3023
Vraymund,
p3010
sI3024
Vrosalynd
p3011
sI3025
Vdyana
p3012
sI3026
Vfive
p3013
sI3027
Vknow
p3014
sI3028
Vcoreen
p3015
sI3029
Vnathan
p3016
sI3030
Vhettie
p3017
sI3031
Vroz,
p3018
sI3032
Vkarel
p3019
sI3033
S'lincoln'
p3020
sI3034
Vlilian
p3021
sI3035
Vemma
p3022
sI3036
Vlike
p3023
sI3037
Vberkley
p3024
sI3038
Vdietrich,
p3025
sI3039
Vwilone,
p3026
sI3040
Vrobina,
p3027
sI3041
Vmartin
p3028
sI3042
Vali,
p3029
sI3043
Vsibelle
p3030
sI3044
Vemmy
p3031
sI3045
S'university'
p3032
sI3046
Visadore
p3033
sI3047
Vheda,
p3034
sI3048
Vbela,
p3035
sI3049
Vtiebold
p3036
sI3050
Vdelinda
p3037
sI3051
Vchurch
p3038
sI3052
S'library'
p3039
sI3053
Vandria,
p3040
sI3054
Vkarina,
p3041
sI3055
S'peter'
p3042
sI3056
Vlucita,
p3043
sI3057
Vsherie,
p3044
sI3058
Vjeremy
p3045
sI3059
Viris,
p3046
sI3060
Vgeorgianna,
p3047
sI3061
Vfanni
p3048
sI3062
Vwenda
p3049
sI3063
Vlissa
p3050
sI3064
Vsamuella
p3051
sI3065
Vluciana,
p3052
sI3066
Velbertine
p3053
sI3067
Vbrigitta
p3054
sI3068
Vmaisey,
p3055
sI3069
S'smyth'
p3056
sI3070
S'murdoch'
p3057
sI3071
Vnahum,
p3058
sI3072
Vnettie,
p3059
sI3073
Vwillette,
p3060
sI3074
Vdeane,
p3061
sI3075
Vschedule
p3062
sI3076
Vjaime,
p3063
sI3077
Vemmalynn
p3064
sI3078
Vwaylin,
p3065
sI3079
Varel,
p3066
sI3080
S'agaust'
p3067
sI3081
Vchaddy
p3068
sI3082
Vsherill,
p3069
sI3083
Vmellie
p3070
sI3084
S'science'
p3071
sI3085
Viris
p3072
sI3086
S'kere'
p3073
sI3087
Vjustin
p3074
sI3088
Vkenneth,
p3075
sI3089
Visaiah,
p3076
sI3090
Vdorolice
p3077
sI3091
Vdoe,
p3078
sI3092
Vlea,
p3079
sI3093
Vtomi
p3080
sI3094
Vtoma
p3081
sI3095
Vwarner
p3082
sI3096
Vtome
p3083
sI3097
Vswimming
p3084
sI3098
Vvanya
p3085
sI3099
Vkassie,
p3086
sI3100
Vshelba
p3087
sI3101
Valex,
p3088
sI3102
Vgusella
p3089
sI3103
Vaddie,
p3090
sI3104
Vcalli
p3091
sI3105
Vterence
p3092
sI3106
Vmerl
p3093
sI3107
Vkathi,
p3094
sI3108
Velissa,
p3095
sI3109
Vcorly
p3096
sI3110
Vbettie
p3097
sI3111
Vmeira,
p3098
sI3112
Vvan
p3099
sI3113
S'museum'
p3100
sI3114
Vconstance
p3101
sI3115
Vsheelagh,
p3102
sI3116
Vtemp,
p3103
sI3117
Vmanny,
p3104
sI3118
Vmaggie,
p3105
sI3119
Vtamar
p3106
sI3120
Vavivah,
p3107
sI3121
Vflynn
p3108
sI3122
S'building'
p3109
sI3123
Vbuy
p3110
sI3124
Vshani
p3111
sI3125
Vrodger
p3112
sI3126
Vmarlow,
p3113
sI3127
Vanne-marie,
p3114
sI3128
Vbrana
p3115
sI3129
Vkizzee
p3116
sI3130
Vhi
p3117
sI3131
Vismail,
p3118
sI3132
Vdore,
p3119
sI3133
Vapollo
p3120
sI3134
Valoysia,
p3121
sI3135
Veat
p3122
sI3136
Vbud
p3123
sI3137
Vcasia,
p3124
sI3138
Vtemp
p3125
sI3139
Vmada
p3126
sI3140
Vfarand
p3127
sI3141
Vwish
p3128
sI3142
Vchancey,
p3129
sI3143
Vmeta
p3130
sI3144
Vdaniel,
p3131
sI3145
Varne
p3132
sI3146
Vrutter,
p3133
sI3147
S'walter'
p3134
sI3148
Vminutes
p3135
sI3149
Voctavius,
p3136
sI3150
Vnike,
p3137
sI3151
Vpatsy,
p3138
sI3152
Vrobinett
p3139
sI3153
Vannabell,
p3140
sI3154
Vhalvard,
p3141
sI3155
Vkingston
p3142
sI3156
Vbuffy
p3143
sI3157
Vkaroly,
p3144
sI3158
Vbelita,
p3145
sI3159
Vconan
p3146
sI3160
Vaverill
p3147
sI3161
Vsalvatore,
p3148
sI3162
Vmaiga,
p3149
sI3163
Valeck,
p3150
sI3164
Vamery,
p3151
sI3165
Vsharia
p3152
sI3166
Vkizzee,
p3153
sI3167
Veugine
p3154
sI3168
Vmerrielle
p3155
sI3169
Vmortimer
p3156
sI3170
Vpatsy
p3157
sI3171
Veddie,
p3158
sI3172
Vpacifica
p3159
sI3173
Vbook
p3160
sI3174
Vshannon
p3161
sI3175
Vgustaf,
p3162
sI3176
Vout
p3163
sI3177
Vamalia,
p3164
sI3178
Vcaroleen,
p3165
sI3179
Vbarty
p3166
sI3180
Vlance
p3167
sI3181
Vmartynne,
p3168
sI3182
Vvirgilio
p3169
sI3183
S'monday'
p3170
sI3184
Vhortense
p3171
sI3185
Vannabella
p3172
sI3186
S'june'
p3173
sI3187
Vsilas,
p3174
sI3188
Vdeborah
p3175
sI3189
Vlaural,
p3176
sI3190
Vjess,
p3177
sI3191
Vconnie,
p3178
sI3192
Visaac,
p3179
sI3193
Vthedrick
p3180
sI3194
Vdewey
p3181
sI3195
Vanthony
p3182
sI3196
Vximenez
p3183
sI3197
Vgarcia
p3184
sI3198
Voral
p3185
sI3199
Vmufinella,
p3186
sI3200
Vemery
p3187
sI3201
Vglennie
p3188
sI3202
Velaina
p3189
sI3203
Vamanda
p3190
sI3204
Voran
p3191
sI3205
Vkimberlee,
p3192
sI3206
Vkellina,
p3193
sI3207
Vmoshe
p3194
sI3208
Vcleva
p3195
sI3209
Vkettie,
p3196
sI3210
Vcorey
p3197
s(dp3198
g24
I22
sg25
I23
sg26
I24
sg27
I25
sg28
I26
sg29
I27
sg2658
I2670
sg30
I28
sg31
I29
sg32
I30
sg33
I31
sg34
I32
sg35
I33
sg36
I34
sg37
I35
sg38
I36
sg39
I37
sg40
I38
sg41
I39
sg42
I40
sg43
I41
sg44
I42
sg45
I43
sg2122
I2132
sg47
I45
sg48
I46
sg49
I47
sg50
I48
sg51
I49
sg52
I50
sg53
I51
sg54
I52
sg55
I53
sg56
I54
sg57
I55
sg58
I56
sg59
I57
sg60
I58
sg61
I59
sg62
I60
sg63
I61
sg14
I12
sg64
I62
sg65
I63
sg66
I64
sg67
I65
sg68
I66
sg69
I67
sg70
I68
sg71
I69
sg72
I70
sg73
I71
sg74
I72
sg75
I73
sg76
I74
sg77
I75
sg78
I76
sg79
I77
sg80
I78
sg81
I79
sg82
I80
sg83
I81
sg84
I82
sg85
I83
sg86
I84
sg87
I85
sg88
I86
sg2548
I2559
sg89
I87
sg2
I0
sg90
I88
sg3054
I3067
sg91
I89
sg92
I90
sg93
I91
sg94
I92
sg95
I93
sg96
I94
sg97
I95
sg1750
I1756
sg98
I96
sg99
I97
sg100
I98
sg102
I100
sg103
I101
sg104
I102
sg105
I103
sg106
I104
sg107
I105
sg108
I106
sg109
I107
sg110
I108
sg111
I109
sg1589
I1595
sg113
I111
sg114
I112
sg115
I113
sg116
I114
sg117
I115
sg118
I116
sg119
I117
sg120
I118
sg121
I119
sg122
I120
sg123
I121
sg124
I122
sg125
I123
sg126
I124
sg127
I125
sg128
I126
sg129
I127
sg130
I128
sg131
I129
sg132
I130
sg133
I131
sg134
I132
sg135
I133
sg136
I134
sg138
I136
sg139
I137
sg1851
I1858
sg141
I139
sg142
I140
sg145
I143
sg146
I144
sg147
I145
sg148
I146
sg149
I147
sg150
I148
sg151
I149
sg2681
I2693
sg153
I151
sg154
I152
sg155
I153
sg156
I154
sg157
I155
sg158
I156
sg159
I157
sg160
I158
sg161
I159
sg162
I160
sg863
I865
sg164
I162
sg870
I872
sg166
I164
sg2907
I2919
sg168
I166
sg169
I167
sg170
I168
sg171
I169
sg172
I170
sg174
I172
sg175
I173
sg176
I174
sg177
I175
sg178
I176
sg179
I177
sg180
I178
sg181
I179
sg182
I180
sg184
I182
sg1104
I1106
sg186
I184
sg187
I185
sg188
I186
sg2225
I2236
sg190
I188
sg192
I190
sg193
I191
sg194
I192
sg195
I193
sg196
I194
sg197
I195
sg198
I196
sg199
I197
sg200
I198
sg2139
I2149
sg202
I200
sg203
I201
sg204
I202
sg205
I203
sg206
I204
sg207
I205
sg208
I206
sg209
I207
sg3092
I3105
sg211
I209
sg212
I210
sg213
I211
sg214
I212
sg215
I213
sg216
I214
sg217
I215
sg218
I216
sg1606
I1612
sg220
I218
sg221
I219
sg222
I220
sg223
I221
sg224
I222
sg225
I223
sg226
I224
sg227
I225
sg228
I226
sg230
I228
sg231
I229
sg232
I230
sg233
I231
sg234
I232
sg235
I233
sg236
I234
sg237
I235
sg2537
I2548
sg238
I236
sg239
I237
sg241
I239
sg242
I240
sg243
I241
sg244
I242
sg245
I243
sg246
I244
sg247
I245
sg248
I246
sg249
I247
sg250
I248
sg251
I249
sg1117
I1119
sg253
I251
sg254
I252
sg255
I253
sg1610
I1616
sg257
I255
sg1281
I1285
sg3
I1
sg259
I257
sg260
I258
sg261
I259
sV,
I260
sg262
I261
sg263
I262
sg264
I263
sg265
I264
sg266
I265
sg267
I266
sg268
I267
sg269
I268
sg270
I269
sg271
I270
sg272
I271
sg210
I208
sg274
I273
sg275
I274
sg276
I275
sg277
I276
sg278
I277
sg279
I278
sg280
I279
sg281
I280
sg282
I281
sg283
I282
sg284
I283
sg285
I284
sg286
I285
sg287
I286
sg288
I287
sg289
I288
sg290
I289
sg291
I290
sg292
I291
sg293
I292
sg294
I293
sg296
I295
sg297
I296
sg298
I297
sg299
I298
sg300
I299
sg301
I300
sg302
I301
sg303
I302
sg304
I303
sg305
I304
sg306
I305
sg307
I306
sg308
I307
sg2485
I2496
sg309
I308
sg310
I309
sg311
I310
sg312
I311
sg313
I312
sg314
I313
sg315
I314
sg17
I15
sg316
I315
sg317
I316
sg318
I317
sg319
I318
sg320
I319
sg321
I320
sg322
I321
sg323
I322
sg324
I323
sg325
I324
sg326
I325
sg2703
I2715
sg328
I327
sg329
I328
sg330
I329
sg331
I330
sg3026
I3039
sg332
I331
sg333
I332
sg334
I333
sg335
I334
sg336
I335
sg338
I337
sg349
I348
sg340
I339
sg341
I340
sg342
I341
sg343
I342
sg344
I343
sg346
I345
sg347
I346
sg348
I347
sg350
I349
sg351
I350
sg352
I351
sg1631
I1637
sg354
I353
sg355
I354
sg356
I355
sg357
I356
sg358
I357
sg359
I358
sg360
I359
sg1633
I1639
sg363
I362
sg364
I363
sg365
I364
sg2168
I2179
sg367
I366
sg368
I367
sg369
I368
sg370
I369
sg371
I370
sg372
I371
sg373
I372
sg3164
I3177
sg375
I374
sg376
I375
sg377
I376
sg378
I377
sg2712
I2724
sg380
I379
sg381
I380
sg382
I381
sg383
I382
sg1137
I1140
sg385
I384
sg2714
I2726
sg387
I386
sg388
I387
sg389
I388
sg390
I389
sg391
I390
sg392
I391
sg393
I392
sg394
I393
sg395
I394
sg396
I395
sg397
I396
sg398
I397
sg399
I398
sg400
I399
sg401
I400
sg402
I401
sg2718
I2730
sS'-'
I403
sg2958
I2970
sg404
I404
sg1142
I1145
sg406
I406
sg407
I407
sg408
I408
sg1143
I1146
sg411
I411
sg412
I412
sg413
I413
sg2720
I2732
sg415
I415
sg416
I416
sg417
I417
sg418
I418
sg419
I419
sg420
I420
sg421
I421
sg422
I422
sg423
I423
sg424
I424
sg425
I425
sg426
I426
sg1343
I1347
sg428
I428
sg430
I430
sg431
I431
sg432
I432
sg433
I433
sg434
I434
sg435
I435
sg436
I436
sg437
I437
sg438
I438
sg439
I439
sg440
I440
sg441
I441
sg442
I442
sg8
I6
sg443
I443
sg444
I444
sg445
I445
sg446
I446
sg447
I447
sg448
I448
sg449
I449
sg450
I450
sg1652
I1658
sg452
I452
sg453
I453
sg454
I454
sg455
I455
sg456
I456
sg457
I457
sg458
I458
sg459
I459
sg460
I460
sg461
I461
sg462
I462
sg463
I463
sg464
I464
sg465
I465
sg466
I466
sg467
I467
sg468
I468
sg469
I469
sg470
I470
sg471
I471
sg472
I472
sg1655
I1661
sg474
I474
sg475
I475
sg477
I477
sg478
I478
sg479
I479
sg480
I480
sg1157
I1160
sg482
I482
sg483
I483
sg484
I484
sg485
I485
sg486
I486
sg487
I487
sg2190
I2201
sg489
I489
sg490
I490
sg492
I492
sg493
I493
sg494
I494
sg495
I495
sg496
I496
sg497
I497
sg499
I499
sg500
I500
sg501
I501
sg2731
I2743
sg502
I502
sg503
I503
sg505
I505
sg506
I506
sg507
I507
sg508
I508
sg509
I509
sg1661
I1667
sg511
I511
sg512
I512
sg513
I513
sg514
I514
sg515
I515
sg2197
I2208
sg16
I14
sg173
I171
sg519
I519
sg520
I520
sg521
I521
sg522
I522
sg523
I523
sg524
I524
sg525
I525
sg526
I526
sg527
I527
sg528
I528
sg529
I529
sg530
I530
sg531
I531
sg532
I532
sg533
I533
sg534
I534
sg535
I535
sg536
I536
sg1168
I1171
sg538
I538
sg539
I539
sg1169
I1172
sg541
I541
sV.
I542
sg542
I543
sg543
I544
sg2204
I2215
sg545
I546
sg546
I547
sg2738
I2750
sg2205
I2216
sg2268
I2279
sg1173
I1176
sg1980
I1988
sg1181
I1184
sg548
I549
sg549
I550
sg550
I551
sg551
I552
sg552
I553
sg553
I554
sg554
I555
sg1669
I1675
sg556
I557
sg665
I666
sg558
I559
sg559
I560
sg560
I561
sg561
I562
sg562
I563
sg563
I564
sg564
I565
sg565
I566
sg566
I567
sg567
I568
sg568
I569
sg1179
I1182
sg570
I571
sg571
I572
sg572
I573
sg573
I574
sg574
I575
sg575
I576
sg576
I577
sg577
I578
sg578
I579
sg3167
I3180
sg579
I580
sg890
I892
sg581
I582
sg582
I583
sg583
I584
sg584
I585
sg585
I586
sg586
I587
sg588
I589
sg589
I590
sg590
I591
sg591
I592
sg592
I593
sg593
I594
sg594
I595
sg595
I596
sg596
I597
sg597
I598
sg598
I599
sg599
I600
sg600
I601
sg601
I602
sg602
I603
sg603
I604
sg655
I656
sg605
I606
sg606
I607
sg607
I608
sg1677
I1683
sg609
I610
sg610
I611
sg611
I612
sg613
I614
sg1184
I1187
sg615
I616
sg616
I617
sg1183
I1186
sg618
I619
sg619
I620
sg620
I621
sg621
I622
sg622
I623
sg624
I625
sg625
I626
sg2912
I2924
sg626
I627
sg627
I628
sg628
I629
sg629
I630
sg630
I631
sg631
I632
sg632
I633
sg633
I634
sg634
I635
sg635
I636
sg636
I637
sg637
I638
sg638
I639
sg639
I640
sg2220
I2231
sg641
I642
sg1187
I1190
sg643
I644
sg644
I645
sg645
I646
sg646
I647
sg647
I648
sg648
I649
sg649
I650
sg650
I651
sg651
I652
sg652
I653
sg653
I654
sg654
I655
sg604
I605
sg656
I657
sg9
I7
sg658
I659
sg659
I660
sg660
I661
sg661
I662
sg662
I663
sg663
I664
sg2756
I2768
sg1191
I1194
sg666
I667
sg667
I668
sg669
I670
sg670
I671
sg671
I672
sg672
I673
sg673
I674
sg1900
I1908
sg674
I675
sg2201
I2212
sg675
I676
sg676
I677
sg677
I678
sg679
I680
sg1193
I1196
sg681
I682
sg683
I684
sg684
I685
sg685
I686
sg686
I687
sg687
I688
sg688
I689
sg689
I690
sg690
I691
sg2135
I2145
sg691
I692
sg1689
I1695
sg2761
I2773
sg694
I695
sg695
I696
sg696
I697
sg697
I698
sg698
I699
sg699
I700
sg700
I701
sg701
I702
sg2231
I2242
sg703
I704
sg704
I705
sg1691
I1697
sg929
I931
sg707
I708
sg708
I709
sg709
I710
sg710
I711
sg711
I712
sg712
I713
sg982
I984
sg714
I715
sg996
I998
sg716
I717
sg1008
I1010
sg718
I719
sg719
I720
sg720
I721
sg722
I723
sg1023
I1025
sg724
I725
sg725
I726
sg726
I727
sg727
I728
sg728
I729
sg2768
I2780
sg730
I731
sg1066
I1068
sg732
I733
sg733
I734
sg734
I735
sg735
I736
sg736
I737
sg737
I738
sg738
I739
sg739
I740
sg740
I741
sg741
I742
sg742
I743
sg743
I744
sg1125
I1127
sg2771
I2783
sg1131
I1133
sg747
I748
sg748
I749
sg749
I750
sg750
I751
sg752
I753
sg1177
I1180
sg754
I755
sg2773
I2785
sg756
I757
sg757
I758
sg1696
I1702
sg2241
I2252
sg759
I761
sg1207
I1210
sg761
I763
sg762
I764
sg763
I765
sg764
I766
sg765
I767
sg766
I768
sg1242
I1245
sg1244
I1247
sg769
I771
sg770
I772
sg771
I773
sg772
I774
sg773
I775
sg774
I776
sg1699
I1705
sg776
I778
sg777
I779
sg2327
I2338
sg778
I780
sg780
I782
sg781
I783
sg782
I784
sg783
I785
sg1575
I1581
sg784
I786
sg785
I787
sg786
I788
sg787
I789
sg788
I790
sg789
I791
sg790
I792
sg1360
I1364
sg792
I794
sg793
I795
sg794
I796
sg795
I797
sg796
I798
sg797
I799
sg798
I800
sg799
I801
sg800
I802
sg801
I803
sg802
I804
sg803
I805
sg804
I806
sg805
I807
sg806
I808
sg807
I809
sg808
I810
sg809
I811
sg810
I812
sg811
I813
sg812
I814
sg813
I815
sg814
I816
sg815
I817
sg816
I818
sg817
I819
sg818
I820
sg819
I821
sg820
I822
sg821
I823
sg823
I825
sg824
I826
sg825
I827
sg826
I828
sg827
I829
sg828
I830
sg829
I831
sg830
I832
sg831
I833
sg832
I834
sg833
I835
sg834
I836
sg835
I837
sg836
I838
sg837
I839
sg838
I840
sg839
I841
sg840
I842
sg841
I843
sg1707
I1713
sg843
I845
sg2251
I2262
sg845
I847
sg1708
I1714
sg847
I849
sg848
I850
sg849
I851
sg850
I852
sg851
I853
sg852
I854
sg1712
I1718
sg853
I855
sg854
I856
sg855
I857
sg2255
I2266
sg857
I859
sg858
I860
sg859
I861
sg860
I862
sg861
I863
sg862
I864
sg3071
I3084
sg864
I866
sg865
I867
sg866
I868
sg867
I869
sg868
I870
sg1220
I1223
sg2260
I2271
sg165
I163
sg871
I873
sg872
I874
sg874
I876
sg875
I877
sg876
I878
sg877
I879
sg878
I880
sg1760
I1766
sg879
I881
sg880
I882
sg881
I883
sg1717
I1723
sg883
I885
sg884
I886
sg885
I887
sg1719
I1725
sg887
I889
sg889
I891
sg891
I893
sg892
I894
sg893
I895
sg894
I896
sg895
I897
sg896
I898
sg897
I899
sg898
I900
sg2264
I2275
sg900
I902
sg1330
I1334
sg902
I904
sg903
I905
sg904
I906
sg905
I907
sg906
I908
sg907
I909
sg908
I910
sg910
I912
sg911
I913
sg912
I914
sg913
I915
sg914
I916
sg915
I917
sg916
I918
sg917
I919
sg918
I920
sg919
I921
sg920
I922
sg921
I923
sg922
I924
sg923
I925
sg924
I926
sg925
I927
sg926
I928
sg927
I929
sg928
I930
sg706
I707
sg930
I932
sg931
I933
sg932
I934
sg933
I935
sg934
I936
sg935
I937
sg936
I938
sg937
I939
sg1228
I1231
sg939
I941
sg940
I942
sg1229
I1232
sg942
I944
sg943
I945
sg944
I946
sg945
I947
sg946
I948
sg947
I949
sg948
I950
sg949
I951
sg950
I952
sg951
I953
sg952
I954
sg953
I955
sg954
I956
sg955
I957
sg956
I958
sg957
I959
sg958
I960
sg959
I961
sg960
I962
sg961
I963
sg962
I964
sg963
I965
sg964
I966
sg965
I967
sg966
I968
sg967
I969
sg968
I970
sg969
I971
sg18
I16
sg1828
I1835
sg971
I973
sg973
I975
sg974
I976
sg975
I977
sg2144
I2154
sg976
I978
sg977
I979
sg978
I980
sg979
I981
sg2839
I2851
sg980
I982
sg981
I983
sg713
I714
sg983
I985
sg984
I986
sg985
I987
sg986
I988
sg987
I989
sg988
I990
sg989
I991
sg990
I992
sg991
I993
sg992
I994
sg994
I996
sg995
I997
sg715
I716
sg997
I999
sg998
I1000
sg999
I1001
sg1000
I1002
sg1001
I1003
sg1002
I1004
sg1003
I1005
sg2280
I2291
sg1005
I1007
sg1742
I1748
sg1006
I1008
sg1007
I1009
sg1009
I1011
sg1010
I1012
sg1011
I1013
sg1012
I1014
sg1013
I1015
sg1014
I1016
sg1015
I1017
sg1016
I1018
sg1017
I1019
sg1018
I1020
sg1019
I1021
sg2876
I2888
sg1020
I1022
sg1021
I1023
sg1022
I1024
sg723
I724
sg1024
I1026
sg1025
I1027
sg1026
I1028
sg1027
I1029
sg1028
I1030
sg1029
I1031
sg295
I294
sg1031
I1033
sg1032
I1034
sg1033
I1035
sg1034
I1036
sg1035
I1037
sg1036
I1038
sg1037
I1039
sg1038
I1040
sg1039
I1041
sg2820
I2832
sg1040
I1042
sg1041
I1043
sg1042
I1044
sg1043
I1045
sg1044
I1046
sg1045
I1047
sg1046
I1048
sg1047
I1049
sg1048
I1050
sg1049
I1051
sg1248
I1251
sg1051
I1053
sg1052
I1054
sg1053
I1055
sg1054
I1056
sg1055
I1057
sg1056
I1058
sg1058
I1060
sg1059
I1061
sg1060
I1062
sg1061
I1063
sg1062
I1064
sg1063
I1065
sg1064
I1066
sg1065
I1067
sg731
I732
sg1067
I1069
sg1068
I1070
sg1069
I1071
sg888
I890
sg1071
I1073
sg1072
I1074
sg1073
I1075
sg2730
I2742
sg1075
I1077
sg1076
I1078
sg1077
I1079
sg1078
I1080
sg1079
I1081
sg1080
I1082
sg1081
I1083
sg1082
I1084
sg1083
I1085
sg1084
I1086
sg1085
I1087
sg1086
I1088
sg1087
I1089
sg1794
I1801
sg2826
I2838
sg1089
I1091
sg1090
I1092
sg1091
I1093
sg1092
I1094
sg1093
I1095
sg1095
I1097
sg1096
I1098
sg1097
I1099
sg1098
I1100
sg1099
I1101
sg2904
I2916
sg1101
I1103
sg1102
I1104
sg1103
I1105
sg1105
I1107
sg1106
I1108
sg1107
I1109
sg1108
I1110
sg1109
I1111
sg1110
I1112
sg1111
I1113
sg1112
I1114
sg1113
I1115
sg1114
I1116
sg1115
I1117
sg1116
I1118
sg252
I250
sg1118
I1120
sg1791
I1798
sg11
I9
sg1121
I1123
sg1122
I1124
sg1123
I1125
sg1124
I1126
sg744
I745
sg1126
I1128
sg1127
I1129
sg1128
I1130
sg1129
I1131
sg1130
I1132
sg746
I747
sg1132
I1134
sg1133
I1135
sS'2'
I1136
sg1134
I1137
sg1135
I1138
sg1136
I1139
sg384
I383
sg1138
I1141
sg1139
I1142
sg1140
I1143
sg1141
I1144
sg405
I405
sg410
I410
sg1144
I1147
sg1145
I1148
sg1146
I1149
sg1147
I1150
sg1148
I1151
sg1149
I1152
sg1150
I1153
sg1151
I1154
sg1152
I1155
sg1153
I1156
sg1154
I1157
sg1155
I1158
sg1156
I1159
sg481
I481
sg1158
I1161
sg1159
I1162
sg1160
I1163
sg1161
I1164
sg1162
I1165
sg1163
I1166
sg1165
I1168
sg1166
I1169
sg537
I537
sg540
I540
sg1171
I1174
sg1172
I1175
sg547
I548
sg1174
I1177
sg1175
I1178
sg1176
I1179
sg3097
I3110
sg1178
I1181
sg569
I570
sg1180
I1183
sg504
I504
sg1182
I1185
sg2312
I2323
sg21
I19
sg614
I615
sg2313
I2324
sg1186
I1189
sg642
I643
sg1188
I1191
sg1189
I1192
sg2832
I2844
sg557
I558
sg1192
I1195
sg680
I681
sg1194
I1197
sg1195
I1198
sg23
I21
sg1196
I1199
sg1198
I1201
sg1199
I1202
sg2294
I2305
sg1200
I1203
sg1201
I1204
sg1202
I1205
sg1203
I1206
sg1204
I1207
sg1206
I1209
sg760
I762
sg1208
I1211
sg1209
I1212
sg1210
I1213
sg1211
I1214
sg1777
I1784
sg1213
I1216
sg1214
I1217
sg1215
I1218
sg1216
I1219
sg1217
I1220
sg1218
I1221
sg2321
I2332
sg869
I871
sg1778
I1785
sg1221
I1224
sg1222
I1225
sg1223
I1226
sg1224
I1227
sg1225
I1228
sg1226
I1229
sg1227
I1230
sg938
I940
sg941
I943
sg1230
I1233
sg1231
I1234
sg1232
I1235
sg1233
I1236
sg1234
I1237
sg1235
I1238
sg1236
I1239
sg1237
I1240
sg1238
I1241
sg1239
I1242
sg1240
I1243
sg1241
I1244
sg767
I769
sg1243
I1246
sg768
I770
sg1245
I1248
sg1246
I1249
sg1247
I1250
sg1050
I1052
sg2847
I2859
sg1250
I1253
sg1251
I1254
sg1252
I1255
sg1280
I1284
sg1254
I1257
sg1255
I1258
sg1256
I1259
sg1257
I1260
sg1258
I1261
sg1259
I1262
sg1260
I1263
sg1261
I1264
sg1262
I1265
sg1263
I1266
sg1264
I1267
sg1266
I1269
sg1267
I1270
sg2095
I2105
sg1268
I1271
sg1269
I1272
sg1270
I1273
sg1271
I1274
sg1272
I1275
sg1273
I1276
sg1274
I1277
sg1275
I1278
sg1276
I1279
sg2489
I2500
sS'3'
I1280
sg1277
I1281
sg1278
I1282
sg1285
I1289
sg1253
I1256
sg258
I256
sg1282
I1286
sg1283
I1287
sg1792
I1799
sg1279
I1283
sg1286
I1290
sg1287
I1291
sg1793
I1800
sg1289
I1293
sg1290
I1294
sg2856
I2868
sg1291
I1295
sg2857
I2869
sg1293
I1297
sg1294
I1298
sg1296
I1300
sg1297
I1301
sg1799
I1806
sg1299
I1303
sg1300
I1304
sg2861
I2873
sg12
I10
sg2333
I2344
sg1304
I1308
sg1305
I1309
sg1306
I1310
sg2862
I2874
sg1307
I1311
sg1308
I1312
sg1309
I1313
sg1310
I1314
sg1311
I1315
sg1312
I1316
sg1313
I1317
sg1314
I1318
sg1315
I1319
sg1316
I1320
sg1317
I1321
sg1318
I1322
sg1319
I1323
sg1320
I1324
sg1321
I1325
sg1322
I1326
sg1323
I1327
sg1324
I1328
sg1325
I1329
sg1326
I1330
sg1327
I1331
sg1328
I1332
sg1329
I1333
sg1331
I1335
sg1332
I1336
sg1333
I1337
sg1334
I1338
sg1335
I1339
sg1336
I1340
sg2872
I2884
sg1338
I1342
sg1339
I1343
sg1340
I1344
sg1341
I1345
sg1342
I1346
sg1344
I1348
sg1345
I1349
sg1346
I1350
sg2863
I2875
sg2345
I2356
sg1811
I1818
sg1350
I1354
sg1351
I1355
sg2949
I2961
sg1353
I1357
sg1354
I1358
sg1355
I1359
sg1356
I1360
sg1357
I1361
sg1358
I1362
sg1359
I1363
sg791
I793
sg1361
I1365
sg1362
I1366
sg1363
I1367
sg1364
I1368
sg1366
I1370
sg1367
I1371
sg1368
I1372
sg1369
I1373
sg1370
I1374
sg1371
I1375
sg1372
I1376
sg1373
I1377
sg1374
I1378
sg1818
I1825
sg20
I18
sg1377
I1381
sg1378
I1382
sg1379
I1383
sg1380
I1384
sg1868
I1876
sg1381
I1385
sg1382
I1386
sg1383
I1387
sg1384
I1388
sg2352
I2363
sg2853
I2865
sg1386
I1390
sg1387
I1391
sg2881
I2893
sg1389
I1393
sg22
I20
sg1390
I1394
sg1391
I1395
sg1392
I1396
sg1393
I1397
sg1394
I1398
sg617
I618
sg1395
I1399
sg1396
I1400
sg1397
I1401
sg273
I272
sg1399
I1403
sg1302
I1306
sg1401
I1405
sg1402
I1406
sg1403
I1407
sg1404
I1408
sS'4'
I1409
sg1405
I1410
sg1406
I1411
sg1407
I1412
sg1408
I1413
sg1409
I1414
sg1410
I1415
sg1411
I1416
sg1412
I1417
sg1413
I1418
sg1414
I1419
sg1415
I1420
sg2927
I2939
sg1416
I1421
sg1417
I1422
sg1418
I1423
sg1419
I1424
sg1420
I1425
sg1421
I1426
sg1422
I1427
sg1423
I1428
sg1424
I1429
sg1425
I1430
sg1426
I1431
sg1427
I1432
sg1428
I1433
sg1429
I1434
sg1430
I1435
sg1431
I1436
sg1432
I1437
sg1433
I1438
sg1434
I1439
sg1435
I1440
sg1436
I1441
sg1437
I1442
sg1438
I1443
sg1439
I1444
sg1440
I1445
sg1441
I1446
sg1442
I1447
sg1443
I1448
sg1444
I1449
sg1445
I1450
sg1446
I1451
sg1447
I1452
sg1448
I1453
sg1449
I1454
sg1450
I1455
sg1452
I1457
sg1453
I1458
sg1454
I1459
sg1455
I1460
sg1456
I1461
sg1457
I1462
sg1458
I1463
sg1459
I1464
sg1460
I1465
sg1461
I1466
sg1462
I1467
sg1463
I1468
sg1464
I1469
sg1465
I1470
sg1466
I1471
sg1467
I1472
sg137
I135
sg2395
I2406
sg1834
I1841
sg1470
I1475
sg1471
I1476
sg1472
I1477
sg1473
I1478
sg1474
I1479
sg1475
I1480
sg1476
I1481
sg1477
I1482
sg2934
I2946
sg1478
I1483
sg1479
I1484
sg1480
I1485
sg1481
I1486
sg1482
I1487
sg2900
I2912
sg2374
I2385
sg1485
I1490
sg1486
I1491
sg1487
I1492
sg1488
I1493
sg1489
I1494
sg1490
I1495
sg1491
I1496
sg1492
I1497
sg1493
I1498
sg1494
I1499
sg1495
I1500
sg1496
I1501
sg1497
I1502
sg3137
I3150
sg1498
I1503
sg1499
I1504
sg1500
I1505
sg1501
I1506
sg1502
I1507
sg993
I995
sg2100
I2110
sg2902
I2914
sg1505
I1510
sg1506
I1511
sg1507
I1512
sg2903
I2915
sg1508
I1513
sg1509
I1514
sg1510
I1515
sg1511
I1516
sg1512
I1517
sg1513
I1518
sg1514
I1519
sg1515
I1520
sg1516
I1521
sg1517
I1522
sg1518
I1523
sg1519
I1524
sg1520
I1525
sg1521
I1526
sg1522
I1527
sg1523
I1528
sg1524
I1529
sg1525
I1530
sg1526
I1531
sg1527
I1532
sg1528
I1533
sg1529
I1534
sg1530
I1535
sg2332
I2343
sg1531
I1536
sg1532
I1537
sg1533
I1538
sg1534
I1539
sg1535
I1540
sg1536
I1541
sg1537
I1542
sg1538
I1543
sg1539
I1544
sg1648
I1654
sg1541
I1546
sg1542
I1547
sg1543
I1548
sg1544
I1549
sg1545
I1550
sg2382
I2393
sS'5'
I1551
sg1546
I1552
sg1547
I1553
sg13
I11
sg1548
I1554
sg1549
I1555
sg1550
I1556
sg2384
I2395
sg1552
I1558
sg1553
I1559
sg1554
I1560
sg2911
I2923
sg1556
I1562
sg1557
I1563
sg1558
I1564
sg1559
I1565
sg1560
I1566
sg1561
I1567
sg1562
I1568
sg1563
I1569
sg2354
I2365
sg1564
I1570
sg1565
I1571
sg1566
I1572
sg1822
I1829
sg2913
I2925
sg1567
I1573
sg1568
I1574
sg1569
I1575
sg1570
I1576
sg1571
I1577
sg1572
I1578
sg1573
I1579
sg1574
I1580
sg1352
I1356
sg1576
I1582
sg1577
I1583
sg1578
I1584
sg1579
I1585
sg1580
I1586
sg1581
I1587
sg1582
I1588
sg1583
I1589
sg1584
I1590
sg1585
I1591
sg1586
I1592
sg1587
I1593
sg112
I110
sg1590
I1596
sg1591
I1597
sg1592
I1598
sg1593
I1599
sg1594
I1600
sg1595
I1601
sg1596
I1602
sg1597
I1603
sg2918
I2930
sg1599
I1605
sg2222
I2233
sS'7'
I1871
sg1601
I1607
sg1603
I1609
sg1604
I1610
sg1605
I1611
sg219
I217
sg1608
I1614
sg1609
I1615
sg256
I254
sg1611
I1617
sg1612
I1618
sg2397
I2408
sg1614
I1620
sg1615
I1621
sg1616
I1622
sg1617
I1623
sg1618
I1624
sg1619
I1625
sg1620
I1626
sg1621
I1627
sg1622
I1628
sg1623
I1629
sg1624
I1630
sg1625
I1631
sg2401
I2412
sg1627
I1633
sg1628
I1634
sg1629
I1635
sg753
I754
sg1630
I1636
sg353
I352
sg1632
I1638
sg361
I360
sg1634
I1640
sg1635
I1641
sg1636
I1642
sg1637
I1643
sg1638
I1644
sg1639
I1645
sg1640
I1646
sg1641
I1647
sg1867
I1875
sg1643
I1649
sg1644
I1650
sg1645
I1651
sg1646
I1652
sg1647
I1653
sg873
I875
sg1649
I1655
sg1650
I1656
sg451
I451
sg1653
I1659
sg1654
I1660
sg473
I473
sg1656
I1662
sg1657
I1663
sg1658
I1664
sg1659
I1665
sg1660
I1666
sg510
I510
sg1662
I1668
sg1663
I1669
sg2523
I2534
sg1664
I1670
sg1665
I1671
sg1666
I1672
sg1667
I1673
sg1668
I1674
sg555
I556
sg1670
I1676
sg1671
I1677
sg1672
I1678
sg1673
I1679
sg1674
I1680
sg1675
I1681
sg1676
I1682
sg608
I609
sg1678
I1684
sg1679
I1685
sg1680
I1686
sg1681
I1687
sg1682
I1688
sg1683
I1689
sg1684
I1690
sg1685
I1691
sg1687
I1693
sg1688
I1694
sg692
I693
sg1690
I1696
sg705
I706
sg1692
I1698
sg1693
I1699
sg1694
I1700
sg1695
I1701
sS'6'
I759
sg3004
I3017
sg1697
I1703
sg1698
I1704
sg775
I777
sg1701
I1707
sg1702
I1708
sg1703
I1709
sg1704
I1710
sg1705
I1711
sg1706
I1712
sg842
I844
sg846
I848
sg1709
I1715
sg1710
I1716
sg1711
I1717
sg1451
I1456
sg1713
I1719
sg1714
I1720
sg2226
I2237
sg1715
I1721
sg1716
I1722
sg882
I884
sg1718
I1724
sg886
I888
sg1720
I1726
sg1721
I1727
sg1722
I1728
sg1723
I1729
sg1724
I1730
sg2936
I2948
sg1725
I1731
sg2415
I2426
sg1727
I1733
sg1728
I1734
sg1729
I1735
sg1730
I1736
sg2421
I2432
sg1731
I1737
sg1732
I1738
sg2939
I2951
sg1734
I1740
sg1735
I1741
sg1736
I1742
sg1737
I1743
sg2417
I2428
sg1739
I1745
sg1740
I1746
sg1741
I1747
sg409
I409
sg1743
I1749
sg1745
I1751
sg1746
I1752
sg1747
I1753
sg1100
I1102
sg1751
I1757
sg1752
I1758
sg1753
I1759
sg1754
I1760
sg1755
I1761
sg2989
I3002
sg1756
I1762
sg1757
I1763
sg1758
I1764
sg1759
I1765
sg498
I498
sg1120
I1122
sg1762
I1768
sg1763
I1769
sVa
I1770
sg1764
I1771
sg1765
I1772
sg185
I183
sg1766
I1773
sg1767
I1774
sg1768
I1775
sg1769
I1776
sg1770
I1777
sg1771
I1778
sg2424
I2435
sg1773
I1780
sg3111
I3124
sg1774
I1781
sg1775
I1782
sg1212
I1215
sg339
I338
sg1779
I1786
sg1780
I1787
sg1781
I1788
sg1782
I1789
sg1783
I1790
sg1784
I1791
sg1785
I1792
sg1786
I1793
sg1787
I1794
sg1788
I1795
sg3034
I3047
sg1789
I1796
sg1790
I1797
sg612
I613
sg1284
I1288
sg1288
I1292
sg1265
I1268
sg1795
I1802
sg1796
I1803
sg1797
I1804
sg1798
I1805
sg1298
I1302
sg1800
I1807
sg1801
I1808
sg1802
I1809
sg1803
I1810
sg1804
I1811
sg1892
I1900
sg1806
I1813
sg1807
I1814
sg1808
I1815
sg1809
I1816
sg1810
I1817
sg1349
I1353
sg1812
I1819
sg2948
I2960
sg1814
I1821
sg1815
I1822
sg1816
I1823
sg1817
I1824
sg1375
I1379
sg1819
I1826
sg1820
I1827
sg1821
I1828
sg1295
I1299
sg1823
I1830
sg1824
I1831
sg1825
I1832
sg1826
I1833
sg668
I669
sg1829
I1836
sg1830
I1837
sg1831
I1838
sg2951
I2963
sg1833
I1840
sg1469
I1474
sg1835
I1842
sg1836
I1843
sg1838
I1845
sg1839
I1846
sg1840
I1847
sg1841
I1848
sg1842
I1849
sg1843
I1850
sg1844
I1851
sg1845
I1852
sg1846
I1853
sg1847
I1854
sg1848
I1855
sg1849
I1856
sg1850
I1857
sg1852
I1859
sg1853
I1860
sg1854
I1861
sg1855
I1862
sg1856
I1863
sg1857
I1864
sg1858
I1865
sg1859
I1866
sg1860
I1867
sg1861
I1868
sg1862
I1869
sg1863
I1870
sg1600
I1606
sg1864
I1872
sg1865
I1873
sg1866
I1874
sg1642
I1648
sg429
I429
sg1869
I1877
sg1870
I1878
sg1871
I1879
sg1872
I1880
sg1873
I1881
sg1875
I1883
sg1876
I1884
sg1877
I1885
sg1878
I1886
sg1879
I1887
sg1880
I1888
sg1881
I1889
sg1882
I1890
sg1883
I1891
sg1884
I1892
sg1885
I1893
sg2426
I2437
sg1886
I1894
sg2444
I2455
sg1888
I1896
sg1889
I1897
sg1890
I1898
sg1891
I1899
sg1805
I1812
sg1893
I1901
sg1894
I1902
sg1895
I1903
sg1896
I1904
sg1897
I1905
sg1898
I1906
sg1899
I1907
sg779
I781
sg1901
I1909
sg1902
I1910
sg1903
I1911
sg1904
I1912
sg1905
I1913
sg1906
I1914
sg1907
I1915
sg1908
I1916
sg3080
I3093
sg1909
I1917
sg1910
I1918
sg1911
I1919
sg1912
I1920
sg1913
I1921
sg1376
I1380
sg1914
I1922
sg1915
I1923
sg2969
I2981
sg1917
I1925
sg1918
I1926
sg1919
I1927
sg1920
I1928
sg1921
I1929
sg1922
I1930
sg1924
I1932
sg1925
I1933
sg1926
I1934
sg1927
I1935
sg1928
I1936
sg1929
I1937
sg1930
I1938
sg1931
I1939
sg1932
I1940
sg3181
I3194
sg1933
I1941
sg1934
I1942
sg1935
I1943
sg1936
I1944
sg1937
I1945
sg1205
I1208
sg1939
I1947
sg1940
I1948
sg1941
I1949
sg1942
I1950
sg1943
I1951
sg1944
I1952
sg1945
I1953
sg1946
I1954
sg1947
I1955
sg1948
I1956
sg1949
I1957
sg1950
I1958
sg1951
I1959
sg1952
I1960
sg1953
I1961
sg1954
I1962
sg1955
I1963
sg1956
I1964
sg1957
I1965
sg1958
I1966
sg1959
I1967
sg1960
I1968
sg1961
I1969
sg1962
I1970
sg3073
I3086
sg1963
I1971
sg2954
I2966
sg1964
I1972
sg1965
I1973
sg2410
I2421
sg1966
I1974
sg3132
I3145
sg1967
I1975
sg1968
I1976
sg1969
I1977
sg1970
I1978
sg1971
I1979
sg1972
I1980
sg1973
I1981
sg2930
I2942
sg1974
I1982
sg1975
I1983
sg1976
I1984
sg1977
I1985
sg1978
I1986
sg1979
I1987
sg1700
I1706
sg1981
I1989
sg1982
I1990
sg1983
I1991
sg1984
I1992
sg1986
I1994
sg1987
I1995
sg2980
I2993
sg1988
I1996
sg1989
I1997
sg1990
I1998
sg1991
I1999
sg1992
I2000
sg2459
I2470
sg1994
I2002
sg3149
I3162
sg1995
I2003
sg1996
I2004
sg1997
I2005
sg1998
I2006
sg2984
I2997
sg2000
I2008
sg2001
I2009
sg2002
I2010
sS'8'
I2011
sg2004
I2013
sg2005
I2014
sg2006
I2015
sg2007
I2016
sg2008
I2017
sg2009
I2018
sg2010
I2019
sg2463
I2474
sg2012
I2021
sg2013
I2022
sg2014
I2023
sg2015
I2024
sg2016
I2025
sg2017
I2026
sg2018
I2027
sg2019
I2028
sg2020
I2029
sg2021
I2030
sg2022
I2031
sg2023
I2032
sg2025
I2034
sg2026
I2035
sg2027
I2036
sg2029
I2038
sg2030
I2039
sg2031
I2040
sg2032
I2041
sg2466
I2477
sg2034
I2043
sg2035
I2044
sg2036
I2045
sg2037
I2046
sg2038
I2047
sg2039
I2048
sg1094
I1096
sg2041
I2050
sg2042
I2051
sg2043
I2052
sg2044
I2053
sg2045
I2054
sg2046
I2055
sg2047
I2056
sg2048
I2057
sg2049
I2058
sg2050
I2059
sg2051
I2060
sg2052
I2061
sg2053
I2062
sg2054
I2063
sg2055
I2064
sg2056
I2065
sg2057
I2066
sg2058
I2067
sg2059
I2068
sg2061
I2070
sg2062
I2071
sg2063
I2072
sg2064
I2073
sg1400
I1404
sS'c'
I2075
sg2066
I2076
sg2067
I2077
sg2068
I2078
sg2069
I2079
sg2070
I2080
sg2071
I2081
sg143
I141
sg2073
I2083
sg2074
I2084
sg2075
I2085
sg2076
I2086
sg2077
I2087
sg2078
I2088
sg2079
I2089
sg2080
I2090
sg2081
I2091
sg2082
I2092
sg2083
I2093
sg2084
I2094
sg2085
I2095
sg2086
I2096
sg2087
I2097
sg2089
I2099
sg2090
I2100
sg2091
I2101
sg2092
I2102
sg2093
I2103
sg2094
I2104
sg1074
I1076
sg2096
I2106
sg2097
I2107
sg2098
I2108
sg2099
I2109
sg901
I903
sg2101
I2111
sg2102
I2112
sg2103
I2113
sg2104
I2114
sg1219
I1222
sg2106
I2116
sg2107
I2117
sg2108
I2118
sg2109
I2119
sg2110
I2120
sg2111
I2121
sg2112
I2122
sg2113
I2123
sg2114
I2124
sg2115
I2125
sg2116
I2126
sg2117
I2127
sg2118
I2128
sg2119
I2129
sg2120
I2130
sg2121
I2131
sg46
I44
sg2123
I2133
sg2124
I2134
sg2125
I2135
sg2126
I2136
sg2127
I2137
sg2128
I2138
sg2129
I2139
sg2130
I2140
sg2131
I2141
sg2132
I2142
sg2437
I2448
sg2133
I2143
sg140
I138
sg2482
I2493
sg2137
I2147
sg2138
I2148
sg201
I199
sg2140
I2150
sg2141
I2151
sg2143
I2153
sg1938
I1946
sg2145
I2155
sg2685
I2697
sg2146
I2156
sg2147
I2157
sg2148
I2158
sg2149
I2159
sS'9'
I2160
sg2150
I2161
sg2151
I2162
sg2997
I3010
sg2152
I2163
sg2153
I2164
sg167
I165
sg2155
I2166
sg2156
I2167
sg2157
I2168
sg2158
I2169
sg2159
I2170
sg2160
I2171
sg2161
I2172
sg2162
I2173
sg2163
I2174
sg2164
I2175
sg2165
I2176
sg2166
I2177
sg2167
I2178
sg366
I365
sg2170
I2181
sg2171
I2182
sg2173
I2184
sg2174
I2185
sg2175
I2186
sg2176
I2187
sg2177
I2188
sg2178
I2189
sg2179
I2190
sg2180
I2191
sg2181
I2192
sg2182
I2193
sg2183
I2194
sg3014
I3027
sg2185
I2196
sg2186
I2197
sg2187
I2198
sg2188
I2199
sg2189
I2200
sg488
I488
sg2191
I2202
sg2192
I2203
sg2193
I2204
sg2194
I2205
sg2195
I2206
sg2196
I2207
sg516
I516
sg2198
I2209
sg2199
I2210
sg2200
I2211
sg2028
I2037
sg2202
I2213
sg2203
I2214
sg544
I545
sg1602
I1608
sg2206
I2217
sg2207
I2218
sg3134
I3147
sg2208
I2219
sg2209
I2220
sg2210
I2221
sg2211
I2222
sg2212
I2223
sg2213
I2224
sg2214
I2225
sg2215
I2226
sg2216
I2227
sg2217
I2228
sg2219
I2230
sg640
I641
sg3023
I3036
sg657
I658
sg2223
I2234
sg2224
I2235
sg682
I683
sg2227
I2238
sg2228
I2239
sg2229
I2240
sg2230
I2241
sg702
I703
sg2232
I2243
sg2233
I2244
sg2234
I2245
sg2235
I2246
sg2236
I2247
sg2237
I2248
sg2238
I2249
sg2239
I2250
sg2240
I2251
sg758
I760
sg2499
I2510
sg2243
I2254
sg2500
I2511
sg6
I4
sg2245
I2256
sg2246
I2257
sg2247
I2258
sg2248
I2259
sg2249
I2260
sg2250
I2261
sg844
I846
sg2252
I2263
sg2253
I2264
sg2254
I2265
sg856
I858
sg2256
I2267
sg2257
I2268
sg2258
I2269
sg2259
I2270
sg1398
I1402
sg2261
I2272
sg2262
I2273
sg2263
I2274
sg899
I901
sg2505
I2516
sg2266
I2277
sg2267
I2278
sg1164
I1167
sg2269
I2280
sg2270
I2281
sg2271
I2282
sg2272
I2283
sg3030
I3043
sg2274
I2285
sg2496
I2507
sg2275
I2286
sg2276
I2287
sg2277
I2288
sg2278
I2289
sg2279
I2290
sg1004
I1006
sg3033
I3046
sg2282
I2293
sg2283
I2294
sg2284
I2295
sg2285
I2296
sg2286
I2297
sg2287
I2298
sg2288
I2299
sg2289
I2300
sg2290
I2301
sg2571
I2582
sg2291
I2302
sg2292
I2303
sg2293
I2304
sg1057
I1059
sg2295
I2306
sg2296
I2307
sg2297
I2308
sg3036
I3049
sg2299
I2310
sg2300
I2311
sg2301
I2312
sg2302
I2313
sg1761
I1767
sg2303
I2314
sg2304
I2315
sg2305
I2316
sg2306
I2317
sg2307
I2318
sg2308
I2319
sg2309
I2320
sg2310
I2321
sg2142
I2152
sg1185
I1188
sg2314
I2325
sg2315
I2326
sg2316
I2327
sg2317
I2328
sg2318
I2329
sg2319
I2330
sg2320
I2331
sg1776
I1783
sg2322
I2333
sg2323
I2334
sg3040
I3053
sg2325
I2336
sg2326
I2337
sg2024
I2033
sg2328
I2339
sg2329
I2340
sg2330
I2341
sg2331
I2342
sg427
I427
sg1303
I1307
sg2334
I2345
sg19
I17
sg2336
I2347
sg2337
I2348
sg2338
I2349
sg2339
I2350
sg2340
I2351
sg2341
I2352
sg2342
I2353
sg2343
I2354
sg2344
I2355
sg1348
I1352
sg2346
I2357
sg2347
I2358
sg2348
I2359
sg2349
I2360
sg2350
I2361
sg2799
I2811
sg2351
I2362
sg1385
I1389
sg2353
I2364
sg1985
I1993
sg2355
I2366
sg2356
I2367
sg2357
I2368
sg2358
I2369
sg2359
I2370
sg2360
I2371
sg2361
I2372
sg2362
I2373
sg2363
I2374
sg2364
I2375
sg2365
I2376
sg2366
I2377
sg2480
I2491
sg2367
I2378
sg2368
I2379
sg2369
I2380
sg580
I581
sg2370
I2381
sg2371
I2382
sg2372
I2383
sg2373
I2384
sg1484
I1489
sg2376
I2387
sg2377
I2388
sg2378
I2389
sg2379
I2390
sg3179
I3192
sg2380
I2391
sg2381
I2392
sg1119
I1121
sg2383
I2394
sg1551
I1557
sg2909
I2921
sg2385
I2396
sg2386
I2397
sg2387
I2398
sg2388
I2399
sg2389
I2400
sg2390
I2401
sg2391
I2402
sg3047
I3060
sg2393
I2404
sg2394
I2405
sg1607
I1613
sg3048
I3061
sg1613
I1619
sg2399
I2410
sg2400
I2411
sg1626
I1632
sg2402
I2413
sg2403
I2414
sg2404
I2415
sg2405
I2416
sg2406
I2417
sg2407
I2418
sg2408
I2419
sg2409
I2420
sg1651
I1657
sg2411
I2422
sg2978
I2991
sg2412
I2423
sg2413
I2424
sg2414
I2425
sg1726
I1732
sg2416
I2427
sg1738
I1744
sg2418
I2429
sg2419
I2430
sg2420
I2431
sg2060
I2069
sg2422
I2433
sg2423
I2434
sg1772
I1779
sg2425
I2436
sg1923
I1931
sg2427
I2438
sg2428
I2439
sg2430
I2441
sg2431
I2442
sg2432
I2443
sg2433
I2444
sg2797
I2809
sg2434
I2445
sg3057
I3070
sg2436
I2447
sg751
I752
sg2438
I2449
sg2439
I2450
sg2440
I2451
sg2441
I2452
sg2442
I2453
sg2443
I2454
sg1887
I1895
sg2445
I2456
sg2446
I2457
sg2447
I2458
sg3186
I3199
sg2448
I2459
sg2449
I2460
sg970
I972
sg2450
I2461
sg2451
I2462
sg2452
I2463
sg2453
I2464
sg2535
I2546
sg2455
I2466
sg2456
I2467
sg2457
I2468
sg2458
I2469
sg1993
I2001
sg2460
I2471
sg2461
I2472
sg2462
I2473
sg2011
I2020
sg2464
I2475
sg2465
I2476
sg2033
I2042
sg2467
I2478
sg2468
I2479
sg2469
I2480
sg2471
I2482
sg2472
I2483
sg2473
I2484
sg2474
I2485
sg2003
I2012
sg2476
I2487
sg7
I5
sg2477
I2488
sg2478
I2489
sg2479
I2490
sg972
I974
sg2481
I2492
sg2136
I2146
sg2483
I2494
sg2484
I2495
sg587
I588
sg2486
I2497
sg2487
I2498
sg2488
I2499
sg337
I336
sg2490
I2501
sg2767
I2779
sg2491
I2502
sg2492
I2503
sg2493
I2504
sg2494
I2505
sg2539
I2550
sg623
I624
sg2497
I2508
sg3068
I3081
sg2242
I2253
sg2244
I2255
sg2501
I2512
sg2502
I2513
sg2503
I2514
sg2504
I2515
sg2265
I2276
sg2506
I2517
sg2507
I2518
sg2508
I2519
sg2509
I2520
sg2510
I2521
sg2511
I2522
sg2512
I2523
sg2513
I2524
sg2514
I2525
sg3070
I3083
sg2516
I2527
sg2517
I2528
sg2518
I2529
sg2519
I2530
sg2722
I2734
sg2520
I2531
sg2521
I2532
sg2522
I2533
sg1468
I1473
sg2524
I2535
sg2525
I2536
sg2526
I2537
sg2375
I2386
sg2528
I2539
sg2529
I2540
sg2530
I2541
sg2531
I2542
sg2532
I2543
sg2533
I2544
sg2534
I2545
sg2454
I2465
sg2536
I2547
sg721
I722
sg2538
I2549
sg2495
I2506
sg2540
I2551
sg2541
I2552
sg2542
I2553
sg2544
I2555
sg2545
I2556
sg2546
I2557
sg2547
I2558
sg374
I373
sg2549
I2560
sg2550
I2561
sg2551
I2562
sg2552
I2563
sg2553
I2564
sg2554
I2565
sg2555
I2566
sg2556
I2567
sg2558
I2569
sg2559
I2570
sg2560
I2571
sg2561
I2572
sg2562
I2573
sg2563
I2574
sg2564
I2575
sg2565
I2576
sg2770
I2782
sg2566
I2577
sg2567
I2578
sg2568
I2579
sg2569
I2580
sg2570
I2581
sg1365
I1369
sg2572
I2583
sg2573
I2584
sg2574
I2585
sg2575
I2586
sg2576
I2587
sg3081
I3094
sg2577
I2588
sg2578
I2589
sg491
I491
sg2581
I2592
sg2582
I2593
sg2583
I2594
sg2755
I2767
sg2584
I2595
sg2585
I2596
sg2586
I2597
sg2587
I2598
sg2953
I2965
sg2588
I2599
sg2589
I2600
sg2590
I2601
sg2591
I2602
sg3084
I3097
sg2593
I2604
sg2594
I2605
sg2595
I2606
sg2596
I2607
sg2597
I2608
sg2598
I2609
sg2599
I2610
sg2600
I2611
sg3185
I3198
sg2601
I2612
sg2602
I2613
sg2603
I2614
sg2604
I2615
sg2606
I2617
sg2607
I2618
sg2608
I2619
sg2609
I2620
sg2610
I2621
sS'1'
I2622
sg2611
I2623
sg2612
I2624
sg2613
I2625
sg2614
I2626
sg2615
I2627
sg2616
I2628
sg2617
I2629
sg2618
I2630
sg2619
I2631
sg2620
I2632
sg2621
I2633
sg2622
I2634
sg2623
I2635
sg2624
I2636
sg2625
I2637
sg2626
I2638
sg2627
I2639
sg2628
I2640
sg2629
I2641
sg2630
I2642
sg2631
I2643
sg2632
I2644
sg2633
I2645
sg2634
I2646
sg2635
I2647
sg2636
I2648
sg2637
I2649
sg2638
I2650
sg2639
I2651
sg2640
I2652
sg2641
I2653
sg2642
I2654
sg2643
I2655
sg2644
I2656
sg2645
I2657
sg2646
I2658
sg2647
I2659
sg2648
I2660
sg2649
I2661
sg240
I238
sg2651
I2663
sg2652
I2664
sg2653
I2665
sg2654
I2666
sg2655
I2667
sg2656
I2668
sg2657
I2669
sg2134
I2144
sg2659
I2671
sg2660
I2672
sg2661
I2673
sg2662
I2674
sg2663
I2675
sg2664
I2676
sg2665
I2677
sg2666
I2678
sg2667
I2679
sg2668
I2680
sg2669
I2681
sg2670
I2682
sg2671
I2683
sg2672
I2684
sg2673
I2685
sg2674
I2686
sg2675
I2687
sg2676
I2688
sg2677
I2689
sg2678
I2690
sg2679
I2691
sg2680
I2692
sg152
I150
sg2682
I2694
sg2683
I2695
sg2684
I2696
sg189
I187
sg2686
I2698
sg2687
I2699
sg2688
I2700
sg2689
I2701
sg2690
I2702
sg717
I718
sg2691
I2703
sg2692
I2704
sg3028
I3041
sg2694
I2706
sg2695
I2707
sg163
I161
sg2696
I2708
sg2697
I2709
sg2698
I2710
sg2699
I2711
sg3104
I3117
sg4
I2
sg2701
I2713
sg2702
I2714
sg327
I326
sg2704
I2716
sg2705
I2717
sg2706
I2718
sg2707
I2719
sg2708
I2720
sg2580
I2591
sg2710
I2722
sg2711
I2723
sg379
I378
sg2713
I2725
sg386
I385
sg2715
I2727
sg2716
I2728
sg2717
I2729
sg403
I402
sg2719
I2731
sg414
I414
sg2721
I2733
sg1347
I1351
sg2723
I2735
sg2724
I2736
sg2725
I2737
sg2726
I2738
sg2727
I2739
sg2728
I2740
sg2729
I2741
sg1170
I1173
sg2040
I2049
sg2732
I2744
sg2733
I2745
sg2734
I2746
sg2735
I2747
sg2736
I2748
sg2737
I2749
sg2579
I2590
sg2739
I2751
sg2740
I2752
sg2741
I2753
sg2742
I2754
sg2743
I2755
sg2744
I2756
sg2745
I2757
sg2746
I2758
sg2747
I2759
sg2748
I2760
sg2749
I2761
sg2750
I2762
sg2751
I2763
sg2752
I2764
sg2753
I2765
sg664
I665
sg2398
I2409
sg2757
I2769
sg2758
I2770
sg2759
I2771
sg2760
I2772
sg693
I694
sg2952
I2964
sg2762
I2774
sg2763
I2775
sg2764
I2776
sg2765
I2777
sg2766
I2778
sg1686
I1692
sg729
I730
sg2769
I2781
sg1503
I1508
sg745
I746
sg2772
I2784
sg755
I756
sg2774
I2786
sg2775
I2787
sg2776
I2788
sg2777
I2789
sg2778
I2790
sg2779
I2791
sg2780
I2792
sg2781
I2793
sg2782
I2794
sg2783
I2795
sg2784
I2796
sg2785
I2797
sg2786
I2798
sg2787
I2799
sg2788
I2800
sg2789
I2801
sg2790
I2802
sg2791
I2803
sg2792
I2804
sg2793
I2805
sg2794
I2806
sg2795
I2807
sg3120
I3133
sg2796
I2808
sg909
I911
sg2798
I2810
sg1540
I1545
sg2800
I2812
sg2801
I2813
sg2802
I2814
sg2803
I2815
sg2804
I2816
sg2805
I2817
sg2806
I2818
sg2807
I2819
sg2808
I2820
sg2809
I2821
sg3124
I3137
sg2811
I2823
sg2812
I2824
sg2813
I2825
sg2814
I2826
sg2815
I2827
sg2816
I2828
sg2818
I2830
sg2819
I2831
sg1827
I1834
sg2821
I2833
sg2822
I2834
sg2823
I2835
sg2824
I2836
sg2825
I2837
sg1088
I1090
sg3128
I3141
sg2827
I2839
sg2828
I2840
sg2829
I2841
sg2830
I2842
sg2831
I2843
sg1190
I1193
sg2833
I2845
sg2835
I2847
sg2836
I2848
sg2837
I2849
sg2838
I2850
sg2543
I2554
sg2840
I2852
sg2841
I2853
sg2842
I2854
sg2843
I2855
sg2844
I2856
sg2845
I2857
sg2846
I2858
sg1249
I1252
sg2848
I2860
sg2849
I2861
sg2850
I2862
sg2851
I2863
sg2852
I2864
sg2693
I2705
sg2854
I2866
sg2855
I2867
sg2154
I2165
sg1292
I1296
sg2858
I2870
sg2859
I2871
sg2860
I2872
sg1301
I1305
sg2527
I2538
sg1030
I1032
sg2864
I2876
sg2865
I2877
sg2866
I2878
sg2867
I2879
sg2868
I2880
sg2869
I2881
sg2870
I2882
sg2871
I2883
sg1337
I1341
sg2873
I2885
sg2874
I2886
sg2875
I2887
sg1744
I1750
sg2877
I2889
sg2878
I2890
sg2879
I2891
sg2880
I2892
sg1388
I1392
sg2882
I2894
sg2883
I2895
sg2884
I2896
sg2885
I2897
sg2886
I2898
sg2887
I2899
sg2888
I2900
sg2889
I2901
sg2890
I2902
sg2891
I2903
sg2892
I2904
sg2893
I2905
sg2894
I2906
sg2896
I2908
sg2897
I2909
sg2898
I2910
sg2899
I2911
sg1483
I1488
sg2901
I2913
sg1504
I1509
sg2475
I2486
sg2065
I2074
sg2905
I2917
sg2906
I2918
sg476
I476
sg2908
I2920
sg2916
I2928
sg1748
I1754
sg2910
I2922
sg1555
I1561
sg1874
I1882
sg5
I3
sg2914
I2926
sg2915
I2927
sg2311
I2322
sg2917
I2929
sg1598
I1604
sg2919
I2931
sg2920
I2932
sg2921
I2933
sg2922
I2934
sg2923
I2935
sg2924
I2936
sg2925
I2937
sg2926
I2938
sg517
I517
sg2928
I2940
sg2929
I2941
sg518
I518
sg3146
I3159
sg2931
I2943
sg2932
I2944
sg2933
I2945
sg822
I824
sg2935
I2947
sg2817
I2829
sg2937
I2949
sg2938
I2950
sg1733
I1739
sg2940
I2952
sg2942
I2954
sg2943
I2955
sg2944
I2956
sg2945
I2957
sg2946
I2958
sg2947
I2959
sg1813
I1820
sg2834
I2846
sg2950
I2962
sg1832
I1839
sg1837
I1844
sg2218
I2229
sg2470
I2481
sg2955
I2967
sg2956
I2968
sg2957
I2969
sg2072
I2082
sg2959
I2971
sg2960
I2972
sg2961
I2973
sg2962
I2974
sg2963
I2975
sg2964
I2976
sg2965
I2977
sg2966
I2978
sg2967
I2979
sg2968
I2980
sg1916
I1924
sVi
I2982
sg2970
I2983
sg2971
I2984
sg2972
I2985
sg2973
I2986
sg2974
I2987
sg2975
I2988
sg2976
I2989
sg2977
I2990
sg2557
I2568
sg2979
I2992
sg345
I344
sg2981
I2994
sg2982
I2995
sg2983
I2996
sg1999
I2007
sg2985
I2998
sg2986
I2999
sg2335
I2346
sg2987
I3000
sg2988
I3001
sg678
I679
sg2990
I3003
sg2991
I3004
sg2998
I3011
sg2992
I3005
sg2993
I3006
sg2994
I3007
sg2995
I3008
sg2996
I3009
sg2088
I2098
sg15
I13
sg2999
I3012
sg3000
I3013
sg3001
I3014
sg3002
I3015
sg3003
I3016
sg144
I142
sg3005
I3018
sg3006
I3019
sg3007
I3020
sg3008
I3021
sg3009
I3022
sg3010
I3023
sg3011
I3024
sg3012
I3025
sg3013
I3026
sg2184
I2195
sg3015
I3028
sg3016
I3029
sg3017
I3030
sg3018
I3031
sg3019
I3032
sg3020
I3033
sg3021
I3034
sg3022
I3035
sg2221
I2232
sg3024
I3037
sg3025
I3038
sg1167
I1170
sg3027
I3040
sg101
I99
sg3029
I3042
sg2273
I2284
sg3031
I3044
sg3032
I3045
sg2281
I2292
sg183
I181
sg3035
I3048
sg2298
I2309
sg3037
I3050
sg3038
I3051
sg3039
I3052
sg2324
I2335
sg3168
I3181
sg3042
I3055
sg3043
I3056
sg3044
I3057
sg3045
I3058
sg3170
I3183
sg2392
I2403
sg2396
I2407
sg3049
I3062
sg3050
I3063
sg3171
I3184
sg3052
I3065
sg3053
I3066
sg2709
I2721
sg3055
I3068
sg3056
I3069
sg2435
I2446
sg3058
I3071
sg3059
I3072
sg3060
I3073
sg3061
I3074
sg3062
I3075
sg3063
I3076
sg3064
I3077
sg3065
I3078
sg3066
I3079
sg3067
I3080
sg2498
I2509
sg3069
I3082
sg2515
I2526
sg3072
I3085
sg1070
I1072
sg3074
I3087
sg3075
I3088
sg3076
I3089
sg3077
I3090
sg3078
I3091
sg3079
I3092
sg2429
I2440
sg2172
I2183
sg3082
I3095
sg3083
I3096
sg2592
I2603
sg3085
I3098
sg3086
I3099
sg3087
I3100
sg3088
I3101
sg3089
I3102
sg3090
I3103
sg191
I189
sg3093
I3106
sg3094
I3107
sg3095
I3108
sg3096
I3109
sg3098
I3111
sg3099
I3112
sg3100
I3113
sg3101
I3114
sg3102
I3115
sg3103
I3116
sg2700
I2712
sg3105
I3118
sg3106
I3119
sg3107
I3120
sg3108
I3121
sg3109
I3122
sg3110
I3123
sg1749
I1755
sg3112
I3125
sg3113
I3126
sg3114
I3127
sg3115
I3128
sg3116
I3129
sg3117
I3130
sg3118
I3131
sg3119
I3132
sg2941
I2953
sg3121
I3134
sg3122
I3135
sg3123
I3136
sg2810
I2822
sg3125
I3138
sg3126
I3139
sg3127
I3140
sg2754
I2766
sg3129
I3142
sg3130
I3143
sg3131
I3144
sg362
I361
sg3133
I3146
sg2105
I2115
sg3135
I3148
sg3136
I3149
sg2895
I2907
sg3138
I3151
sg3139
I3152
sg3140
I3153
sg3141
I3154
sg3142
I3155
sg3143
I3156
sg3144
I3157
sg3145
I3158
sg10
I8
sg3147
I3160
sg3148
I3161
sg2650
I2662
sg3150
I3163
sg3151
I3164
sg3152
I3165
sg3153
I3166
sg3154
I3167
sg3155
I3168
sg3156
I3169
sg3157
I3170
sg3158
I3171
sg3159
I3172
sg3160
I3173
sg3161
I3174
sg3162
I3175
sg3163
I3176
sg2605
I2616
sg3165
I3178
sg3166
I3179
sg1197
I1200
sg3041
I3054
sg3169
I3182
sg3046
I3059
sg3051
I3064
sg3172
I3185
sg3173
I3186
sg3174
I3187
sg3175
I3188
sg3176
I3189
sg3177
I3190
sg3178
I3191
sg229
I227
sg3180
I3193
sg1588
I1594
sg3182
I3195
sg3183
I3196
sg3184
I3197
sg3091
I3104
sg2169
I2180
sg3187
I3200
sg3188
I3201
sg3189
I3202
sg3190
I3203
sg3191
I3204
sg3192
I3205
sg3193
I3206
sg3194
I3207
sg3195
I3208
sg3196
I3209
sg3197
I3210
s(lp3199
S'user_affirm'
p3200
aS'user_ack'
p3201
aS'user_finish'
p3202
aS'user_start'
p3203
ag3202
ag3203
aS'user_restart'
p3204
aS'user_report'
p3205
aS'user_dont_want_report'
p3206
a(lp3207
S'user_inform_whenstart_hour'
p3208
aS'user_inform_whenstart_min'
p3209
aS'user_inform_whened_hour'
p3210
aS'user_inform_whened_min'
p3211
aS'user_inform_duration_hour'
p3212
aS'user_inform_duration_min'
p3213
a(lp3214
S'user_inform_what'
p3215
aS'user_inform_day'
p3216
aS'user_inform_where'
p3217
aS'text'
p3218
at.