((dp1
I0
S'<END>'
p2
sI1
S'<START>'
p3
sI2
S'<TOK0>'
p4
sI3
S'<TOK1>'
p5
sI4
S'<TOK2>'
p6
sI5
S'<TOK3>'
p7
sI6
S'<TOK4>'
p8
sI7
S'<TOK5>'
p9
sI8
S'<TOK6>'
p10
sI9
S'<TOK7>'
p11
sI10
S'<TOK8>'
p12
sI11
S'<TOK9>'
p13
sI12
S'<TOK10>'
p14
sI13
S'<TOK11>'
p15
sI14
S'<TOK12>'
p16
sI15
S'<TOK13>'
p17
sI16
S'<TOK14>'
p18
sI17
S'<TOK15>'
p19
sI18
S'<TOK16>'
p20
sI19
S'<TOK17>'
p21
sI20
S'<TOK18>'
p22
sI21
S'<TOK19>'
p23
sI22
Vcleva,
p24
sI23
Vall
p25
sI24
Vhaydon
p26
sI25
Vforget
p27
sI26
Vbilli,
p28
sI27
Vjeromy
p29
sI28
S'elisabeth'
p30
sI29
Vfour
p31
sI30
Vnananne
p32
sI31
Vguinna
p33
sI32
S'15'
p34
sI33
Vgael,
p35
sI34
Vsanford
p36
sI35
Vboris,
p37
sI36
Vtobie
p38
sI37
Verminie
p39
sI38
Vbaillie
p40
sI39
S'thursday'
p41
sI40
Vardenia
p42
sI41
Vto
p43
sI42
Vclarissa,
p44
sI43
Vplants
p45
sI44
Vorsa
p46
sI45
Vdevin,
p47
sI46
Vfar
p48
sI47
Vwood,
p49
sI48
Vwilfred
p50
sI49
Vdarbie
p51
sI50
Velene
p52
sI51
S'school'
p53
sI52
Vammamaria
p54
sI53
Vevonne,
p55
sI54
Vjanith,
p56
sI55
S'wednesday'
p57
sI56
Vjehu,
p58
sI57
Vanjela,
p59
sI58
Velissa
p60
sI59
Vlise
p61
sI60
Vmarkos
p62
sI61
Venjoy
p63
sI62
Vten
p64
sI63
Vblaire
p65
sI64
Vpast
p66
sI65
S'design'
p67
sI66
Valphonse,
p68
sI67
Vgwenni
p69
sI68
Vdasya,
p70
sI69
Vchriss
p71
sI70
Vchrist
p72
sI71
Vblinni,
p73
sI72
Vingemar,
p74
sI73
Vkarna
p75
sI74
S'microbiology'
p76
sI75
S'asia'
p77
sI76
Vdouglis
p78
sI77
Vnew
p79
sI78
Varlie
p80
sI79
Vphilippe
p81
sI80
Vcollette
p82
sI81
Vparwane
p83
sI82
Vsybilla
p84
sI83
Vrodolphe,
p85
sI84
Vkarlee
p86
sI85
S'street,'
p87
sI86
S'november'
p88
sI87
Vrikki,
p89
sI88
Vrori
p90
sI89
Vvite,
p91
sI90
Vkellina,
p92
sI91
S'economics'
p93
sI92
Vfergus
p94
sI93
Vzebulen
p95
sI94
Vjogging
p96
sI95
Vjill
p97
sI96
Vmalissa,
p98
sI97
Vcristen
p99
sI98
Vi'm
p100
sI99
Vvic
p101
sI100
Vshirline,
p102
sI101
Vgizela
p103
sI102
Vrickie,
p104
sI103
Vmarv,
p105
sI104
Verminia
p106
sI105
Vmallorie
p107
sI106
Vlyda
p108
sI107
Vbettie,
p109
sI108
Vtakes
p110
sI109
Vwould
p111
sI110
Vthedrick,
p112
sI111
Vteodora,
p113
sI112
Vtonie,
p114
sI113
Vkirsten,
p115
sI114
Vtwo
p116
sI115
Volle,
p117
sI116
Vcall
p118
sI117
S'6'
sI118
Vuntil
p119
sI119
Vgrier
p120
sI120
Vkarlee,
p121
sI121
Vdion
p122
sI122
Vmelba
p123
sI123
Vbogart,
p124
sI124
Vnineteen
p125
sI125
Vjefry,
p126
sI126
Vme
p127
sI127
S'room'
p128
sI128
Vflore
p129
sI129
Vdamien
p130
sI130
S'science'
p131
sI131
Vnine
p132
sI132
S'erc'
p133
sI133
Vmargalo,
p134
sI134
Vshoshanna,
p135
sI135
Vmy
p136
sI136
Vmatilda
p137
sI137
Vmarkos,
p138
sI138
Vlise,
p139
sI139
Vlenee,
p140
sI140
Vhoward,
p141
sI141
Vantonius,
p142
sI142
Vki,
p143
sI143
Vjean-christophe,
p144
sI144
Vmaggee,
p145
sI145
Vodie,
p146
sI146
Vcherin
p147
sI147
Vdavie
p148
sI148
Vwant
p149
sI149
Vantonino,
p150
sI150
Vend
p151
sI151
Vjoane
p152
sI152
Vleonelle
p153
sI153
Vdave,
p154
sI154
Valia,
p155
sI155
Vinterview
p156
sI156
Vberkley,
p157
sI157
Vkarlotta
p158
sI158
Vkarlotte
p159
sI159
Vchristalle
p160
sI160
Vcorrie,
p161
sI161
Vconstanta
p162
sI162
Vparwane,
p163
sI163
Voralle,
p164
sI164
Vwrong
p165
sI165
Vadela,
p166
sI166
Vrosella,
p167
sI167
S'faculty'
p168
sI168
Vmariejeanne
p169
sI169
Vdanyelle
p170
sI170
Vulrike
p171
sI171
S'law'
p172
sI172
Va
sI173
Voralle
p173
sI174
Vmarlow
p174
sI175
Vkirstie
p175
sI176
Vtonya,
p176
sI177
S'g16'
p177
sI178
Vthat's
p178
sI179
Vpeg,
p179
sI180
Vgenny,
p180
sI181
Vdon't
p181
sI182
S'september'
p182
sI183
Vover
p183
sI184
Vchicky
p184
sI185
Vvita
p185
sI186
Vberkie,
p186
sI187
Vkellina
p187
sI188
Vvite
p188
sI189
Vbrandice
p189
sI190
S'25'
p190
sI191
S'26'
p191
sI192
S'27'
p192
sI193
S'20'
p193
sI194
S'21'
p194
sI195
S'22'
p195
sI196
S'23'
p196
sI197
Vedith
p197
sI198
Vabelard
p198
sI199
S'28'
p199
sI200
S'29'
p200
sI201
Vjoanne,
p201
sI202
Vbaily
p202
sI203
Vpavia
p203
sI204
Vconney
p204
sI205
Venrica
p205
sI206
Vevening
p206
sI207
Vreturn
p207
sI208
Vbartolemo
p208
sI209
Vlynette,
p209
sI210
Vmatilda,
p210
sI211
Vodie
p211
sI212
Vwally
p212
sI213
Vsixteen
p213
sI214
Vmorena,
p214
sI215
Vdanyette,
p215
sI216
Valex
p216
sI217
Vbrooks,
p217
sI218
Vkaleena,
p218
sI219
Vmeal
p219
sI220
Vblinni
p220
sI221
Vricki,
p221
sI222
Vblinny
p222
sI223
Vkimberlee
p223
sI224
S'doug'
p224
sI225
Vtruman
p225
sI226
Vrandolph
p226
sI227
S'saturday'
p227
sI228
Vleave
p228
sI229
Vforty
p229
sI230
Valvina,
p230
sI231
S'health'
p231
sI232
S'7'
sI233
Vilene,
p232
sI234
Vtillie,
p233
sI235
Vkeeley,
p234
sI236
Vneville,
p235
sI237
Vchriss,
p236
sI238
S'friday'
p237
sI239
Vrickie
p238
sI240
Vdorian,
p239
sI241
Vrikki
p240
sI242
Vdirk
p241
sI243
S'laby'
p242
sI244
Vbeginning
p243
sI245
Vstarts
p244
sI246
Vanson,
p245
sI247
Vroddie
p246
sI248
Vhannibal
p247
sI249
Vhewett
p248
sI250
Velden
p249
sI251
Vwash
p250
sI252
Vdone
p251
sI253
Vmelba,
p252
sI254
Vevonne
p253
sI255
S'electronic'
p254
sI256
Vcarlyle
p255
sI257
Vtwenty
p256
sI258
Vnomi
p257
sI259
Vleighton
p258
sI260
S'gilbert'
p259
sI261
Vjeff,
p260
sI262
Vdion,
p261
sI263
Vblaire,
p262
sI264
Vgym
p263
sI265
Vstephannie
p264
sI266
Vtheater
p265
sI267
Vdorisa,
p266
sI268
Vbegins
p267
sI269
Vpeggi,
p268
sI270
Vgreg
p269
sI271
Vximenez,
p270
sI272
Vdani
p271
sI273
Vjefry
p272
sI274
Vcharlotte
p273
sI275
Vilene
p274
sI276
Vsanford,
p275
sI277
Vmind
p276
sI278
Vsharity
p277
sI279
Vchandal
p278
sI280
Vferinand
p279
sI281
Vsawyere
p280
sI282
Vsashenka
p281
sI283
Vbevvy,
p282
sI284
Vlorettalorna,
p283
sI285
Vthat
p284
sI286
Vmeta,
p285
sI287
Valso
p286
sI288
Vkaleena
p287
sI289
Vclea,
p288
sI290
Vbobbie
p289
sI291
Vulrica
p290
sI292
Vveronike
p291
sI293
Vkendal
p292
sI294
Vdianemarie,
p293
sI295
Vwhat
p294
sI296
Vsawyer,
p295
sI297
Vcherin,
p296
sI298
Vrosetta,
p297
sI299
Vmargalo
p298
sI300
Vthe
p299
sI301
Vanthony,
p300
sI302
S'don'
p301
sI303
S'medical'
p302
sI304
Vhumbert
p303
sI305
Vvaclav,
p304
sI306
Vtucker,
p305
sI307
Vsherye
p306
sI308
Vconstance
p307
sI309
Vjean-lou,
p308
sI310
Vkristen
p309
sI311
Vterese
p310
sI312
Vmadelyn,
p311
sI313
Vcarlen
p312
sI314
Vmichaella,
p313
sI315
S'earth'
p314
sI316
Vmaribeth
p315
sI317
Vfine
p316
sI318
Vlenore,
p317
sI319
Vdanyelle,
p318
sI320
Vvinni
p319
sI321
Vwoodie,
p320
sI322
Vchiquita
p321
sI323
Vbelle,
p322
sI324
Vkathy
p323
sI325
Vuta,
p324
sI326
Vrick
p325
sI327
Vtomi,
p326
sI328
Vstephani
p327
sI329
S'8'
sI330
Vdo
p328
sI331
Vtammi
p329
sI332
Vvinni,
p330
sI333
Vwatch
p331
sI334
Vlorettalorna
p332
sI335
S'bouverie'
p333
sI336
Vreport
p334
sI337
Vleontyne,
p335
sI338
Vhewett,
p336
sI339
Vmarleah
p337
sI340
Vajay,
p338
sI341
Vdante
p339
sI342
Vcherey,
p340
sI343
Venrica,
p341
sI344
Valdus
p342
sI345
Vseventeen
p343
sI346
Vconney,
p344
sI347
Vpeggi
p345
sI348
Vannalyse,
p346
sI349
Vclarette
p347
sI350
Vsee
p348
sI351
Velnora
p349
sI352
Vare
p350
sI353
Vblinny,
p351
sI354
Vrandolph,
p352
sI355
Vclea
p353
sI356
Vconrad,
p354
sI357
Vallie
p355
sI358
Vjean-christophe
p356
sI359
Vcleland
p357
sI360
Vsaid
p358
sI361
Vreggy
p359
sI362
Vplease
p360
sI363
Vmarcellina,
p361
sI364
Vpaolina,
p362
sI365
Vlancelot
p363
sI366
Vrobb,
p364
sI367
Vemelda,
p365
sI368
Vmailbox
p366
sI369
Vcatharine
p367
sI370
S'c'
sI371
Vlast
p368
sI372
Vrestaurant
p369
sI373
Vmeredith
p370
sI374
S'myer'
p371
sI375
Vmarleah,
p372
sI376
Vmichaella
p373
sI377
Vleanor
p374
sI378
Vcob
p375
sI379
Vedythe
p376
sI380
Vtown,
p377
sI381
Vjeff
p378
sI382
Vwinnie
p379
sI383
Vbinny
p380
sI384
Vbela
p381
sI385
Volle
p382
sI386
Vskipp
p383
sI387
Vcelestyn
p384
sI388
Vsammy
p385
sI389
Vgoddard,
p386
sI390
Vvan,
p387
sI391
Valia
p388
sI392
Vdevin
p389
sI393
Varel,
p390
sI394
Vcreate
p391
sI395
Vthree
p392
sI396
V.
sI397
Vsammy,
p393
sI398
Vcollected
p394
sI399
Vmeeting
p395
sI400
Vpm
p396
sI401
Vannalee,
p397
sI402
Vflight
p398
sI403
Vcarroll,
p399
sI404
Vamery,
p400
sI405
Vdennie,
p401
sI406
S'dulcie'
p402
sI407
Vsidoney,
p403
sI408
Vanthony
p404
sI409
Vdave
p405
sI410
Vyigal,
p406
sI411
Vchandal,
p407
sI412
Vcrystie
p408
sI413
Vkalvin,
p409
sI414
Vhomework
p410
sI415
Vcatlee,
p411
sI416
Vjerald
p412
sI417
Vseven
p413
sI418
Vbrewer
p414
sI419
Vlynette
p415
sI420
Vis
p416
sI421
Vphillipp,
p417
sI422
Vit
p418
sI423
Vmirabella
p419
sI424
Veighteen
p420
sI425
Velijah,
p421
sI426
Vin
p422
sI427
Vantonino
p423
sI428
Vrabi,
p424
sI429
Vreggy,
p425
sI430
S'memorial'
p426
sI431
Vbrenna
p427
sI432
Vbelle
p428
sI433
Vmake
p429
sI434
Vruperta
p430
sI435
Vkarlotta,
p431
sI436
Vvaclav
p432
sI437
S'9'
sI438
Vbobine,
p433
sI439
Vanatol
p434
sI440
Vwilone
p435
sI441
Vhang
p436
sI442
Vjanean
p437
sI443
Vhans
p438
sI444
Vanatol,
p439
sI445
Verastus,
p440
sI446
Vharmon,
p441
sI447
S'barry'
p442
sI448
Vcharlie
p443
sI449
Vreginald
p444
sI450
Vtobie,
p445
sI451
Vjean
p446
sI452
S'chemistry'
p447
sI453
S'spencer'
p448
sI454
Vleone
p449
sI455
Vmarcy
p450
sI456
Vantonie,
p451
sI457
Vgreg,
p452
sI458
Vroderick
p453
sI459
Vthanks
p454
sI460
Vsheena
p455
sI461
Vlancelot,
p456
sI462
Vyes
p457
sI463
Vsheena,
p458
sI464
Vsue-elle,
p459
sI465
Vmohamed
p460
sI466
S'dining'
p461
sI467
Vcherry
p462
sI468
Vlindsy,
p463
sI469
Vandria
p464
sI470
Vkalvin
p465
sI471
Vkeeley
p466
sI472
Vtillie
p467
sI473
S'march'
p468
sI474
Vannalyse
p469
sI475
Vcalypso,
p470
sI476
Vhercule,
p471
sI477
Vclyde,
p472
sI478
Vgustaf
p473
sI479
Vkylila,
p474
sI480
Vsansone,
p475
sI481
Vmonika
p476
sI482
Vnelie,
p477
sI483
Vkendal,
p478
sI484
Vcalypso
p479
sI485
Vadara,
p480
sI486
Vremind
p481
sI487
Vnight
p482
sI488
Vulrich
p483
sI489
Vjennilee
p484
sI490
Vfergus,
p485
sI491
Vright
p486
sI492
S'old'
p487
sI493
Vmalissa
p488
sI494
Vbrena
p489
sI495
Vsome
p490
sI496
Vback
p491
sI497
Vviole
p492
sI498
Vdorian
p493
sI499
S'<NO>'
p494
sI500
Vleone,
p495
sI501
Valphonse
p496
sI502
Vsharia,
p497
sI503
Vfor
p498
sI504
Vcollect
p499
sI505
S'veterinary'
p500
sI506
Vfox
p501
sI507
Veverything
p502
sI508
Vlorraine
p503
sI509
Vmarcellina
p504
sI510
Vpeg
p505
sI511
Vphilippe,
p506
sI512
Vbe
p507
sI513
Vjanith
p508
sI514
Vdental
p509
sI515
Vaurea,
p510
sI516
Vmikako,
p511
sI517
Vlasts
p512
sI518
Vcory
p513
sI519
Vconrad
p514
sI520
Vdotti
p515
sI521
Vcoral
p516
sI522
Vcarlen,
p517
sI523
Vcatharine,
p518
sI524
S'melbourne'
p519
sI525
Vtymothy
p520
sI526
Vdinner
p521
sI527
Vann,
p522
sI528
Vcatlee
p523
sI529
Vafternoon
p524
sI530
Vdarbie,
p525
sI531
Vjoya,
p526
sI532
S'block'
p527
sI533
Vshoshanna
p528
sI534
Vtwelve
p529
sI535
Varliene
p530
sI536
Vdante,
p531
sI537
Vjeniece
p532
sI538
S'next'
p533
sI539
Vmalva
p534
sI540
Vannabell
p535
sI541
Vadara
p536
sI542
Vaurelie
p537
sI543
Vulrica,
p538
sI544
Vhappy
p539
sI545
Vjohnathon
p540
sI546
Vbettie
p541
sI547
Vjulius,
p542
sI548
Vbaird,
p543
sI549
Vpierre
p544
sI550
Vsherye,
p545
sI551
Vvibhu
p546
sI552
Vhear
p547
sI553
Vdaloris
p548
sI554
Vdiena,
p549
sI555
S'221'
p550
sI556
Vreset
p551
sI557
Varabel
p552
sI558
Vuta
p553
sI559
Vkellie
p554
sI560
Vup
p555
sI561
Vus
p556
sI562
Vtell
p557
sI563
Verda
p558
sI564
Vki
p559
sI565
Vhumbert,
p560
sI566
S'engineering'
p561
sI567
Vbogart
p562
sI568
Vjanean,
p563
sI569
Vharvie
p564
sI570
Vcheck
p565
sI571
Vruss,
p566
sI572
Vno
p567
sI573
Vvibhu,
p568
sI574
Vemmalynn,
p569
sI575
Vgizela,
p570
sI576
Vvic,
p571
sI577
Vyigal
p572
sI578
Vgre
p573
sI579
S'electrical'
p574
sI580
Vmerrile,
p575
sI581
Vsaundra
p576
sI582
Vdirk,
p577
sI583
Vmary,
p578
sI584
Vfootball
p579
sI585
Vcherida,
p580
sI586
Vcrystie,
p581
sI587
Vloree
p582
sI588
Vximenez
p583
sI589
Vleontyne
p584
sI590
Vgwenni,
p585
sI591
Vvick
p586
sI592
Vmerrill,
p587
sI593
S'dow'
p588
sI594
S'hollyock'
p589
sI595
Vtime
p590
sI596
Vhello
p591
sI597
Vteodora
p592
sI598
Vhappy,
p593
sI599
Vnichol,
p594
sI600
Vrod
p595
sI601
Vmallorie,
p596
sI602
Vroz
p597
sI603
Vgo
p598
sI604
Vgael
p599
sI605
Vromonda
p600
sI606
Voclock
p601
sI607
S'kwong'
p602
sI608
Vjennilee,
p603
sI609
Vgonzalo,
p604
sI610
Veloisa
p605
sI611
Voutside
p606
sI612
Vjeremy,
p607
sI613
Vemyle
p608
sI614
Vjohannah,
p609
sI615
Vlibby
p610
sI616
Volaf
p611
sI617
Volag
p612
sI618
Vtry
p613
sI619
S'this'
p614
sI620
Vwaneta,
p615
sI621
Vleandra
p616
sI622
Vruperta,
p617
sI623
Vwally,
p618
sI624
Vmalva,
p619
sI625
Vbary,
p620
sI626
Vcherey
p621
sI627
Vcarli
p622
sI628
Vguinna,
p623
sI629
Vsimeon
p624
sI630
Vorsa,
p625
sI631
Vstephani,
p626
sI632
Vletta
p627
sI633
Vexercise
p628
sI634
Vcamille,
p629
sI635
S'lee'
p630
sI636
Vrosella
p631
sI637
Vannalee
p632
sI638
Vwater
p633
sI639
Vlet
p634
sI640
Vanjela
p635
sI641
Vfifteen
p636
sI642
Vchange
p637
sI643
Vneville
p638
sI644
Vthirty
p639
sI645
Vammamaria,
p640
sI646
Vclarisse,
p641
sI647
Vciel
p642
sI648
Vleighton,
p643
sI649
Verastus
p644
sI650
Vkylila
p645
sI651
Vkissiah
p646
sI652
Vfrom
p647
sI653
Vbartolemo,
p648
sI654
Vjeromy,
p649
sI655
Vbianca,
p650
sI656
Vvisit
p651
sI657
Vninetta
p652
sI658
Vby
p653
sI659
Veleven
p654
sI660
Vgoing
p655
sI661
Vtruman,
p656
sI662
Vreynold
p657
sI663
Vlulita
p658
sI664
Vemmy,
p659
sI665
Vpacifica,
p660
sI666
Von
p661
sI667
Vcorey,
p662
sI668
Velaina,
p663
sI669
Vthatch
p664
sI670
Vlazlo
p665
sI671
Vconnie
p666
sI672
Vsue-elle
p667
sI673
Vlyda,
p668
sI674
Vvalli
p669
sI675
Vjulius
p670
sI676
Vcar
p671
sI677
Vconsolata
p672
sI678
Vcharlie,
p673
sI679
Vshirline
p674
sI680
Vcrista,
p675
sI681
Vnickie
p676
sI682
S'december'
p677
sI683
Vetta
p678
sI684
Vcarroll
p679
sI685
Vdennie
p680
sI686
Vkyrstin,
p681
sI687
Vgeorgeta,
p682
sI688
Vheard
p683
sI689
Vhedda
p684
sI690
Vquiggly,
p685
sI691
Vtab
p686
sI692
Vjehu
p687
sI693
Vlenore
p688
sI694
Vdavina
p689
sI695
Vbernadene
p690
sI696
Vyelena
p691
sI697
Vemelda
p692
sI698
Vsix
p693
sI699
Vedith,
p694
sI700
S'chemical'
p695
sI701
Vtill
p696
sI702
S'sunday'
p697
sI703
Vsig
p698
sI704
Vclair
p699
sI705
Vmartin,
p700
sI706
Vcoleman
p701
sI707
Vclair,
p702
sI708
Vjesselyn,
p703
sI709
Vhalvard
p704
sI710
Vreynold,
p705
sI711
Vattend
p706
sI712
S'may'
p707
sI713
Vfran
p708
sI714
Vgonzalo
p709
sI715
Vkristen,
p710
sI716
Vronald
p711
sI717
Vstandford
p712
sI718
Vbirthday
p713
sI719
Vdaloris,
p714
sI720
Vconstance,
p715
sI721
Vbevvy
p716
sI722
Vharmon
p717
sI723
S'sidney'
p718
sI724
Vgoldia,
p719
sI725
Vmeditate
p720
sI726
Vso
p721
sI727
Vmartina
p722
sI728
S'april'
p723
sI729
Vissy
p724
sI730
Vbenni
p725
sI731
Vclarissa
p726
sI732
Vdavie,
p727
sI733
Vclarisse
p728
sI734
Verminia,
p729
sI735
Voral
p730
sI736
Vbinny,
p731
sI737
Vrutter
p732
sI738
Vjoanne
p733
sI739
Vmikako
p734
sI740
Vberkie
p735
sI741
S'agricultural'
p736
sI742
Vcamille
p737
sI743
Vleandra,
p738
sI744
Vcliff,
p739
sI745
Vsib
p740
sI746
Vromona
p741
sI747
Vantonius
p742
sI748
Vrabi
p743
sI749
Vdorothy,
p744
sI750
Vcarole
p745
sI751
Vnettie
p746
sI752
Vfreeman
p747
sI753
Vtonie
p748
sI754
S'practice'
p749
sI755
S'newman'
p750
sI756
Vanson
p751
sI757
Vhalf
p752
sI758
Vnot
p753
sI759
Vbinky
p754
sI760
Vnow
p755
sI761
Vardenia,
p756
sI762
Vday
p757
sI763
S'biomolecular'
p758
sI764
Vbilli
p759
sI765
S'february'
p760
sI766
Vdanyette
p761
sI767
S'january'
p762
sI768
Vjoane,
p763
sI769
Vsidoney
p764
sI770
Volia
p765
sI771
Vteodoor,
p766
sI772
Vjean-lou
p767
sI773
Vkinna,
p768
sI774
Vjill,
p769
sI775
Vteodoor
p770
sI776
Vfran,
p771
sI777
Vwaneta
p772
sI778
Vbooks
p773
sI779
Vthirteen
p774
sI780
Vbrodie
p775
sI781
Vmorton
p776
sI782
Vkimmo
p777
sI783
Vout
p778
sI784
Valbum
p779
sI785
Vbutch
p780
sI786
Vemyle,
p781
sI787
Vreboot
p782
sI788
Vroderick,
p783
sI789
S'lecture'
p784
sI790
Vallie,
p785
sI791
Vletta,
p786
sI792
Vcorrect
p787
sI793
Vricki
p788
sI794
S'harold'
p789
sI795
Vbrooks
p790
sI796
Vfourteen
p791
sI797
Vajay
p792
sI798
Vashleigh,
p793
sI799
Vcarl
p794
sI800
Vpris
p795
sI801
Vsven
p796
sI802
Vken,
p797
sI803
Vplace
p798
sI804
Vlindsy
p799
sI805
Vadrian
p800
sI806
Vrick,
p801
sI807
Vcherida
p802
sI808
Vzarah,
p803
sI809
Vdani,
p804
sI810
Vmerrili
p805
sI811
Vmarna,
p806
sI812
Vmerrill
p807
sI813
S'24'
p808
sI814
Vhailee,
p809
sI815
Vmerrile
p810
sI816
Vone
p811
sI817
Vset
p812
sI818
Vdiena
p813
sI819
Vcarry
p814
sI820
Vgeorge
p815
sI821
Vcy,
p816
sI822
Vkimberley,
p817
sI823
Vkathy,
p818
sI824
Vgerold
p819
sI825
Vsystem
p820
sI826
Vmarylin
p821
sI827
Vbary
p822
sI828
Velden,
p823
sI829
S'2'
sI830
S'white'
p824
sI831
Vsansone
p825
sI832
Vnelie
p826
sI833
Vulrich,
p827
sI834
Vciel,
p828
sI835
Vjustin,
p829
sI836
Vmellisa,
p830
sI837
Vwoodie
p831
sI838
Vmemo
p832
sI839
S'alan'
p833
sI840
S'july'
p834
sI841
S'11'
p835
sI842
S'10'
p836
sI843
S'13'
p837
sI844
S'12'
p838
sI845
Vhaydon,
p839
sI846
S'14'
p840
sI847
S'17'
p841
sI848
S'16'
p842
sI849
S'19'
p843
sI850
S'18'
p844
sI851
Vrodolphe
p845
sI852
Vmelvyn,
p846
sI853
Vlissy
p847
sI854
S'and'
p848
sI855
Vgerold,
p849
sI856
Vann
p850
sI857
Vkellen
p851
sI858
Vmellisa
p852
sI859
Vadela
p853
sI860
Vrent
p854
sI861
Vhave
p855
sI862
Vneed
p856
sI863
Vwilfred,
p857
sI864
Vromonda,
p858
sI865
Vlet's
p859
sI866
Vlenee
p860
sI867
Vdallas
p861
sI868
S'babel'
p862
sI869
S'sciences'
p863
sI870
Vphillipp
p864
sI871
Vbaird
p865
sI872
Vtake
p866
sI873
Vizaak
p867
sI874
Vhannibal,
p868
sI875
Vroddie,
p869
sI876
Vlulita,
p870
sI877
Vissy,
p871
sI878
Vbenni,
p872
sI879
S'theatre'
p873
sI880
S'centre'
p874
sI881
Veight
p875
sI882
Vtab,
p876
sI883
Vwake,
p877
sI884
Vpembroke
p878
sI885
Vabelard,
p879
sI886
Vcorrie
p880
sI887
Vchancey
p881
sI888
Vnancie
p882
sI889
Vminny,
p883
sI890
Vdorothy
p884
sI891
Vbobine
p885
sI892
Vamery
p886
sI893
Vnananne,
p887
sI894
Vperla
p888
sI895
Vstate
p889
sI896
Vferinand,
p890
sI897
Vwood
p891
sI898
Vrobb
p892
sI899
Vboris
p893
sI900
Vlistened
p894
sI901
Vget
p895
sI902
Vperla,
p896
sI903
Vstavros
p897
sI904
Vhailee
p898
sI905
Vsascha
p899
sI906
Vmaggee
p900
sI907
Vcherry,
p901
sI908
Vstacie
p902
sI909
Vmorning
p903
sI910
Vfreeman,
p904
sI911
Vlorelei
p905
sI912
Vchristalle,
p906
sI913
Vcarole,
p907
sI914
Vdotti,
p908
sI915
S'college'
p909
sI916
Vsean
p910
sI917
Vquiggly
p911
sI918
Vgoddard
p912
sI919
Valoisia
p913
sI920
Vrobinett,
p914
sI921
Vtimmi,
p915
sI922
Vdavina,
p916
sI923
Vmelvyn
p917
sI924
S'3'
sI925
Vashleigh
p918
sI926
Vkarmen
p919
sI927
Vharvie,
p920
sI928
Vjoya
p921
sI929
Vsharity,
p922
sI930
Vnickie,
p923
sI931
Vmadelyn
p924
sI932
Vken
p925
sI933
Vends
p926
sI934
Vrosetta
p927
sI935
Vkristal
p928
sI936
S'jacobs'
p929
sI937
Vaddie
p930
sI938
Vclarette,
p931
sI939
Vselena
p932
sI940
Vkirsten
p933
sI941
Vcory,
p934
sI942
Vorelia
p935
sI943
Vdudley,
p936
sI944
Vflorinda
p937
sI945
Velijah
p938
sI946
Vjesselyn
p939
sI947
Vpaolina
p940
sI948
Vsimeon,
p941
sI949
S'hercus'
p942
sI950
Vdallas,
p943
sI951
S'tuesday'
p944
sI952
V,
sI953
Vcy
p945
sI954
Vzarah
p946
sI955
Vkinna
p947
sI956
S'arts'
p948
sI957
Vkatlin
p949
sI958
Vannabell,
p950
sI959
Vhoward
p951
sI960
Vit's
p952
sI961
Vvick,
p953
sI962
Vtimmi
p954
sI963
Vmarv
p955
sI964
Vlucita
p956
sI965
Vmary
p957
sI966
Vgiffard
p958
sI967
Vshopping
p959
sI968
Vfinishes
p960
sI969
Vchiquita,
p961
sI970
Vdevinne,
p962
sI971
Vjean,
p963
sI972
Vwake
p964
sI973
Vdevinne
p965
sI974
Van
p966
sI975
Vruby
p967
sI976
S'agaust'
p968
sI977
Vatlante
p969
sI978
Vbradly
p970
sI979
Vlanna
p971
sI980
Vantone
p972
sI981
Vlanni
p973
sI982
Vaugusta
p974
sI983
Vwill
p975
sI984
Vingemar
p976
sI985
Vgoldia
p977
sI986
Vhercule
p978
sI987
Valdus,
p979
sI988
Vyelena,
p980
sI989
Vevelyn
p981
sI990
Vdianemarie
p982
sI991
Vpierre,
p983
sI992
Vjennette,
p984
sI993
Vbradly,
p985
sI994
Vdoctor
p986
sI995
Vlazlo,
p987
sI996
Vpay
p988
sI997
Vdasya
p989
sI998
Vantone,
p990
sI999
Vparty
p991
sI1000
Vreminder
p992
sI1001
Vsolange
p993
sI1002
Veugenie
p994
sI1003
Vgenny
p995
sI1004
Vfinish
p996
sI1005
Vbinky,
p997
sI1006
Vvita,
p998
sI1007
Vconstanta,
p999
sI1008
Varabel,
p1000
sI1009
Vkimberley
p1001
sI1010
Vtucker
p1002
sI1011
Vaurelie,
p1003
sI1012
Voff
p1004
sI1013
Vantonie
p1005
sI1014
Vi
sI1015
Vbobbie,
p1006
sI1016
S'1'
sI1017
S'biosciences'
p1007
sI1018
Velene,
p1008
sI1019
Vnoam
p1009
sI1020
Vgeorgeta
p1010
sI1021
Vcrista
p1011
sI1022
Vkyrstin
p1012
sI1023
Vsuzette,
p1013
sI1024
Vsaundra,
p1014
sI1025
Vkarna,
p1015
sI1026
Vfishing
p1016
sI1027
Vperceval
p1017
sI1028
Vlaurel
p1018
sI1029
S'baldwin'
p1019
sI1030
Vbegin
p1020
sI1031
Vruby,
p1021
sI1032
S'hall'
p1022
sI1033
Vtonya
p1023
sI1034
Vclyde
p1024
sI1035
S'4'
sI1036
Vjohannah
p1025
sI1037
Vgeorge,
p1026
sI1038
Vmatch
p1027
sI1039
S'mcdonell'
p1028
sI1040
Vtymothy,
p1029
sI1041
Vread
p1030
sI1042
S'room,'
p1031
sI1043
Vfive
p1032
sI1044
Vknow
p1033
sI1045
Vcoreen
p1034
sI1046
Vhettie
p1035
sI1047
Vroz,
p1036
sI1048
Vyou
p1037
sI1049
Vorelia,
p1038
sI1050
Vbernadene,
p1039
sI1051
Vlike
p1040
sI1052
Vberkley
p1041
sI1053
Vnanette
p1042
sI1054
Vmartina,
p1043
sI1055
Vmartin
p1044
sI1056
Vmorena
p1045
sI1057
Vaurea
p1046
sI1058
Vemmy
p1047
sI1059
Vsawyere,
p1048
sI1060
Vwinnie,
p1049
sI1061
Vbela,
p1050
sI1062
Vjohnathon,
p1051
sI1063
Vandria,
p1052
sI1064
Vguillermo
p1053
sI1065
S'peter'
p1054
sI1066
Vlucita,
p1055
sI1067
Vjeremy
p1056
sI1068
Vcoral,
p1057
sI1069
Vnoon
p1058
sI1070
Vdudley
p1059
sI1071
Vmerrili,
p1060
sI1072
S'murdoch'
p1061
sI1073
S'business'
p1062
sI1074
Vemmalynn
p1063
sI1075
Vjennette
p1064
sI1076
Vcarlyle,
p1065
sI1077
Vbarrie
p1066
sI1078
Vcoreen,
p1067
sI1079
Vzebulen,
p1068
sI1080
Vbianca
p1069
sI1081
Vquarter
p1070
sI1082
Vok
p1071
sI1083
Vjustin
p1072
sI1084
S'of'
p1073
sI1085
Vlocation
p1074
sI1086
Vtomi
p1075
sI1087
S'west'
p1076
sI1088
Varne,
p1077
sI1089
Vem
p1078
sI1090
Valex,
p1079
sI1091
Vgustaf,
p1080
sI1092
Velissa,
p1081
sI1093
Vneil
p1082
sI1094
Vnellie
p1083
sI1095
Vvan
p1084
sI1096
Vronald,
p1085
sI1097
Varel
p1086
sI1098
Vthere
p1087
sI1099
Vstart
p1088
sI1100
Vpembroke,
p1089
sI1101
Vadrian,
p1090
sI1102
S'redmond'
p1091
sI1103
Vmarlow,
p1092
sI1104
Vsuzette
p1093
sI1105
Vhi
p1094
sI1106
Vleanor,
p1095
sI1107
Vapollo
p1096
sI1108
Vwith
p1097
sI1109
Veat
p1098
sI1110
Vloree,
p1099
sI1111
S'october'
p1100
sI1112
Vmada
p1101
sI1113
Vhiro
p1102
sI1114
Vwish
p1103
sI1115
Vmarna
p1104
sI1116
Vmeta
p1105
sI1117
Varne
p1106
sI1118
Vruss
p1107
sI1119
Vminny
p1108
sI1120
Vapollo,
p1109
sI1121
Vsybilla,
p1110
sI1122
Vrobinett
p1111
sI1123
Vcreat
p1112
sI1124
Vhalvard,
p1113
sI1125
Vam
p1114
sI1126
S'general'
p1115
sI1127
Valarm
p1116
sI1128
Vas
p1117
sI1129
Vat
p1118
sI1130
Vguillermo,
p1119
sI1131
Vsawyer
p1120
sI1132
Vincorrect
p1121
sI1133
Vagain
p1122
sI1134
Vsharia
p1123
sI1135
Vvickie
p1124
sI1136
Vpacifica
p1125
sI1137
Vbook
p1126
sI1138
S'5'
sI1139
Vcarli,
p1127
sI1140
Vdidn't
p1128
sI1141
Vbarty
p1129
sI1142
Vstavros,
p1130
sI1143
S'monday'
p1131
sI1144
S'june'
p1132
sI1145
Vnichol
p1133
sI1146
Vbrenna,
p1134
sI1147
Vtown
p1135
sI1148
Vdorisa
p1136
sI1149
Vberenice
p1137
sI1150
Vconnie,
p1138
sI1151
Vthedrick
p1139
sI1152
Vcliff
p1140
sI1153
S'building'
p1141
sI1154
Vrutter,
p1142
sI1155
Vpadraig
p1143
sI1156
Velaina
p1144
sI1157
Vpris,
p1145
sI1158
Valvina
p1146
sI1159
Vkimberlee,
p1147
sI1160
Vcleva
p1148
sI1161
Voran
p1149
sI1162
Vcorey
p1150
s(dp1151
g981
I989
sg24
I22
sg25
I23
sg26
I24
sg593
I598
sg27
I25
sg28
I26
sg594
I599
sg595
I600
sg29
I27
sg30
I28
sg782
I787
sg31
I29
sg32
I30
sg592
I597
sg33
I31
sg1147
I1159
sg598
I603
sg35
I33
sg678
I683
sg701
I706
sg36
I34
sg599
I604
sg1054
I1065
sg37
I35
sg909
I915
sg38
I36
sg39
I37
sg600
I605
sg40
I38
sg41
I39
sg42
I40
sg43
I41
sg602
I607
sg44
I42
sg603
I608
sg920
I927
sg604
I609
sg408
I412
sg47
I45
sg48
I46
sg49
I47
sg607
I612
sg608
I613
sg50
I48
sg1115
I1126
sg609
I614
sg51
I49
sg610
I615
sg52
I50
sg669
I674
sg596
I601
sg53
I51
sg1136
I1148
sg611
I616
sg612
I617
sg54
I52
sg786
I791
sg972
I980
sg57
I55
sg228
I228
sg614
I619
sg14
I12
sg58
I56
sg59
I57
sg388
I391
sg60
I58
sg617
I622
sg61
I59
sg657
I662
sg62
I60
sg63
I61
sg619
I624
sg64
I62
sg65
I63
sg925
I932
sg913
I919
sg620
I625
sg66
I64
sg667
I672
sg67
I65
sg673
I678
sg68
I66
sg622
I627
sg623
I628
sg69
I67
sg997
I1005
sg70
I68
sg71
I69
sg624
I629
sg72
I70
sg73
I71
sg74
I72
sg75
I73
sg76
I74
sg77
I75
sg625
I630
sg626
I631
sg78
I76
sg627
I632
sg79
I77
sg80
I78
sg628
I633
sg81
I79
sg2
I0
sg765
I770
sg753
I758
sg630
I635
sg631
I636
sg82
I80
sg83
I81
sg84
I82
sg85
I83
sg86
I84
sg633
I638
sg676
I681
sg87
I85
sg635
I640
sg88
I86
sg7
I5
sg89
I87
sg637
I642
sg888
I894
sg402
I406
sg90
I88
sg91
I89
sg92
I90
sg93
I91
sg94
I92
sg95
I93
sg96
I94
sg792
I797
sg1127
I1139
sg98
I96
sg99
I97
sg793
I798
sg100
I98
sg978
I986
sg1095
I1106
sg1145
I1157
sg101
I99
sg102
I100
sg103
I101
sg1065
I1076
sg960
I968
sg642
I647
sg104
I102
sg105
I103
sg644
I649
sg106
I104
sg864
I870
sg871
I877
sg107
I105
sg108
I106
sg1104
I1115
sg109
I107
sg110
I108
sg111
I109
sg112
I110
sg113
I111
sg114
I112
sg115
I113
sg651
I656
sg116
I114
sg652
I657
sg533
I538
sg117
I115
sg891
I897
sg118
I116
sg927
I934
sS'6'
I117
sg1068
I1079
sg656
I661
sg119
I118
sg658
I663
sg659
I664
sg660
I665
sg120
I119
sg121
I120
sg662
I667
sg663
I668
sg122
I121
sg1085
I1096
sg882
I888
sg680
I685
sg123
I122
sg124
I123
sg665
I670
sg666
I671
sg125
I124
sg126
I125
sg1008
I1018
sg127
I126
sg668
I673
sg935
I942
sg128
I127
sg129
I128
sg130
I129
sg131
I130
sg672
I677
sg18
I16
sg684
I689
sg132
I131
sg133
I132
sg1041
I1052
sg134
I133
sg135
I134
sg136
I135
sg674
I679
sg137
I136
sg138
I137
sg675
I680
sg139
I138
sg140
I139
sg686
I691
sg605
I610
sg141
I140
sg677
I682
sg142
I141
sg422
I426
sg144
I143
sg145
I144
sg681
I686
sg682
I687
sg146
I145
sg683
I688
sg147
I146
sg685
I690
sg363
I365
sg149
I148
sg985
I993
sg687
I692
sg688
I693
sg689
I694
sg690
I695
sg151
I150
sg894
I900
sg692
I697
sg1075
I1086
sg152
I151
sg423
I427
sg154
I153
sg1004
I1012
sg155
I154
sg937
I944
sg695
I700
sg696
I701
sg697
I702
sg698
I703
sg699
I704
sg1072
I1083
sg156
I155
sg798
I803
sg317
I318
sg702
I707
sg703
I708
sg704
I709
sg159
I158
sg160
I159
sg161
I160
sg706
I711
sg707
I712
sg708
I713
sg709
I714
sg162
I161
sg163
I162
sg164
I163
sg165
I164
sg713
I718
sg714
I719
sg166
I165
sg167
I166
sg168
I167
sg169
I168
sg427
I431
sg171
I170
sg172
I171
sg716
I721
sg717
I722
sVa
I172
sg802
I807
sg718
I723
sg986
I994
sg173
I173
sg174
I174
sg175
I175
sg720
I725
sg721
I726
sg176
I176
sg988
I996
sg177
I177
sg993
I1001
sg724
I729
sg725
I730
sg178
I178
sg179
I179
sg938
I945
sg693
I698
sg728
I733
sg180
I180
sg952
I960
sg181
I181
sg182
I182
sg183
I183
sg184
I184
sg731
I736
sg732
I737
sg733
I738
sg694
I699
sg735
I740
sg736
I741
sg185
I185
sg186
I186
sg187
I187
sg188
I188
sg189
I189
sg3
I1
sg191
I191
sg192
I192
sg193
I193
sg194
I194
sg195
I195
sg196
I196
sg197
I197
sg198
I198
sg199
I199
sg200
I200
sg201
I201
sg796
I801
sg202
I202
sg203
I203
sg743
I748
sg744
I749
sg204
I204
sg746
I751
sg205
I205
sg747
I752
sg206
I206
sg207
I207
sS'3'
I924
sg208
I208
sg209
I209
sg749
I754
sg210
I210
sg996
I1004
sg810
I815
sg748
I753
sg700
I705
sg751
I756
sg211
I211
sg212
I212
sg900
I906
sg754
I759
sg213
I213
sg756
I761
sg158
I157
sg214
I214
sg758
I763
sg215
I215
sg760
I765
sg216
I216
sg1129
I1141
sg762
I767
sg1100
I1111
sg763
I768
sg994
I1002
sg1148
I1160
sg217
I217
sg764
I769
sg813
I818
sg218
I218
sg219
I219
sg766
I771
sg767
I772
sg220
I220
sg221
I221
sg768
I773
sg769
I774
sg722
I727
sg771
I776
sg902
I908
sg772
I777
sg222
I222
sg705
I710
sg636
I641
sg774
I779
sg224
I224
sg775
I780
sg225
I225
sg226
I226
sg227
I227
sg778
I783
sg779
I784
sg613
I618
sg653
I658
sg958
I966
sg781
I786
sg866
I872
sg229
I229
sg783
I788
sg815
I820
sg230
I230
sg231
I231
sS'7'
I232
sg17
I15
sg784
I789
sg895
I901
sg785
I790
sg55
I53
sg787
I792
sg233
I234
sg788
I793
sg234
I235
sg789
I794
sg1070
I1081
sg907
I913
sg236
I237
sg710
I715
sg237
I238
sg238
I239
sg790
I795
sg791
I796
sg97
I95
sg239
I240
sg794
I799
sg240
I241
sg241
I242
sg242
I243
sg243
I244
sg711
I716
sg244
I245
sg712
I717
sg148
I147
sg245
I246
sg560
I565
sg157
I156
sg246
I247
sg800
I805
sg801
I806
sg247
I248
sg803
I808
sg804
I809
sg805
I810
sg248
I249
sg807
I812
sg11
I9
sg738
I743
sg249
I250
sg811
I816
sg250
I251
sg812
I817
sg251
I252
sg252
I253
sg814
I819
sg253
I254
sg254
I255
sg727
I732
sg4
I2
sg816
I821
sg839
I845
sg255
I256
sg817
I822
sg818
I823
sg1035
I1046
sg819
I824
sg256
I257
sg257
I258
sg820
I825
sg258
I259
sg821
I826
sg822
I827
sg823
I828
sS'2'
I829
sg759
I764
sg259
I260
sg1001
I1009
sg825
I831
sg908
I914
sg270
I271
sg478
I483
sg441
I446
sg829
I835
sg261
I262
sg830
I836
sg262
I263
sg284
I285
sg263
I264
sg264
I265
sg1051
I1062
sg833
I839
sg20
I18
sg834
I840
sg266
I267
sg824
I830
sg267
I268
sg621
I626
sg837
I843
sg838
I844
sg34
I32
sg840
I846
sg268
I269
sg842
I848
sg843
I849
sg340
I342
sg845
I851
sg846
I852
sg912
I918
sg847
I853
sg269
I270
sg826
I832
sg271
I272
sg272
I273
sg910
I916
sg848
I854
sg273
I274
sg601
I606
sg849
I855
sg274
I275
sg275
I276
sg276
I277
sg277
I278
sg853
I859
sg278
I279
sg279
I280
sg855
I861
sg856
I862
sg280
I281
sg719
I724
sg281
I282
sg857
I863
sg671
I676
sg858
I864
sg282
I283
sg21
I19
sg859
I865
sg860
I866
sg861
I867
sg283
I284
sg862
I868
sg831
I837
sg285
I286
sg286
I287
sg287
I288
sg865
I871
sg288
I289
sg289
I290
sg290
I291
sg679
I684
sg729
I734
sg868
I874
sg291
I292
sg292
I293
sg870
I876
sg293
I294
sg872
I878
sg873
I879
sg874
I880
sg23
I21
sg294
I295
sg295
I296
sg1036
I1047
sg296
I297
sg297
I298
sg876
I882
sg298
I299
sg877
I883
sg1093
I1104
sg446
I451
sS'4'
I1035
sg300
I301
sg879
I885
sg301
I302
sg1103
I1114
sg302
I303
sg303
I304
sg1128
I1140
sg304
I305
sg1094
I1105
sg799
I804
sg305
I306
sg306
I307
sg307
I308
sg308
I309
sg309
I310
sg726
I731
sg881
I887
sg917
I923
sg1074
I1085
sg310
I311
sg8
I6
sg311
I312
sg312
I313
sg313
I314
sg883
I889
sg884
I890
sg314
I315
sg315
I316
sg885
I891
sg316
I317
sg318
I319
sg629
I634
sg1096
I1107
sg319
I320
sg320
I321
sg321
I322
sg889
I895
sg322
I323
sg1098
I1109
sg1011
I1021
sg890
I896
sg655
I660
sg325
I326
sg326
I327
sg327
I328
sS'8'
I329
sg1146
I1158
sg892
I898
sg1022
I1032
sg893
I899
sg328
I330
sg886
I892
sg329
I331
sg691
I696
sg232
I233
sg1087
I1098
sg330
I332
sg897
I903
sg331
I333
sg332
I334
sg898
I904
sg333
I335
sg1050
I1061
sg828
I834
sg334
I336
sg335
I337
sg770
I775
sg899
I905
sg1014
I1024
sg336
I338
sg841
I847
sg901
I907
sg1015
I1025
sg959
I967
sg337
I339
sg338
I340
sg339
I341
sg903
I909
sg1028
I1039
sg904
I910
sg844
I850
sg906
I912
sg341
I343
sg342
I344
sg1016
I1026
sg343
I345
sg344
I346
sg1017
I1027
sg345
I347
sg346
I348
sg347
I349
sg926
I933
sg1042
I1053
sg348
I350
sg349
I351
sg896
I902
sg350
I352
sg351
I353
sg911
I917
sg352
I354
sg353
I355
sg354
I356
sg355
I357
sg356
I358
sg914
I920
sg357
I359
sg358
I360
sg916
I922
sg359
I361
sg360
I362
sg361
I363
sg606
I611
sg918
I925
sg919
I926
sg362
I364
sg921
I928
sg922
I929
sg970
I978
sg923
I930
sg924
I931
sg863
I869
sg808
I813
sg364
I366
sg632
I637
sg190
I190
sg928
I935
sg365
I367
sg983
I991
sg929
I936
sg930
I937
sg366
I368
sg367
I369
sg931
I938
sg739
I744
sg932
I939
sg933
I940
sg878
I884
sg827
I833
sS'c'
I370
sg368
I371
sg369
I372
sg16
I14
sg1109
I1120
sg936
I943
sg371
I374
sg372
I375
sg373
I376
sg374
I377
sg375
I378
sg376
I379
sg634
I639
sg939
I946
sg940
I947
sg941
I948
sg377
I380
sg12
I10
sg378
I381
sg379
I382
sg380
I383
sg381
I384
sg382
I385
sg742
I747
sg976
I984
sg383
I386
sg384
I387
sg734
I739
sg946
I954
sg385
I388
sg464
I469
sg387
I390
sg947
I955
sg389
I392
sg948
I956
sg390
I393
sg1112
I1123
sg951
I959
sg442
I447
sg391
I394
sg392
I395
sg953
I961
sV.
I396
sg955
I963
sg1076
I1087
sg741
I746
sg393
I397
sg394
I398
sg956
I964
sg395
I399
sg850
I856
sg396
I400
sg323
I324
sg851
I857
sg398
I402
sg399
I403
sg400
I404
sg852
I858
sg401
I405
sg638
I643
sg403
I407
sg404
I408
sg5
I3
sg405
I409
sg963
I971
sg406
I410
sg965
I973
sg966
I974
sg967
I975
sg407
I411
sg969
I977
sg45
I43
sg649
I654
sg597
I602
sg971
I979
sg639
I644
sg56
I54
sg934
I941
sg973
I981
sg1117
I1128
sg974
I982
sg975
I983
sg370
I373
sg409
I413
sg745
I750
sg411
I415
sg412
I416
sg854
I860
sg670
I675
sg413
I417
sg980
I988
sg979
I987
sg414
I418
sg415
I419
sg640
I645
sg416
I420
sg417
I421
sg418
I422
sg419
I423
sg420
I424
sg421
I425
sg984
I992
sg143
I142
sg150
I149
sg153
I152
sg424
I428
sg425
I429
sg426
I430
sg170
I169
sg723
I728
sg987
I995
sg428
I432
sg429
I433
sg989
I997
sg990
I998
sg430
I434
sg431
I435
sg432
I436
sS'9'
I437
sg991
I999
sg992
I1000
sg433
I438
sg434
I439
sg757
I762
sg1121
I1132
sg435
I440
sg223
I223
sg1122
I1133
sg1135
I1147
sg235
I236
sg436
I441
sg998
I1006
sg437
I442
sg438
I443
sg999
I1007
sg439
I444
sg440
I445
sg1000
I1008
sg615
I620
sg260
I261
sg750
I755
sg1003
I1011
sg265
I266
sg1005
I1013
sVi
I1014
sg443
I448
sg444
I449
sg445
I450
sg1033
I1044
sg795
I800
sg1123
I1134
sg1006
I1015
sS'1'
I1016
sg1007
I1017
sg1134
I1146
sg1124
I1135
sg299
I300
sg447
I452
sg448
I453
sg449
I454
sg475
I480
sg451
I456
sg1009
I1019
sg1010
I1020
sg641
I646
sg324
I325
sg1012
I1022
sg22
I20
sg752
I757
sg452
I457
sg1013
I1023
sg875
I881
sg453
I458
sg1105
I1116
sg454
I459
sg455
I460
sg456
I461
sg1018
I1028
sg457
I462
sg458
I463
sg1019
I1029
sg459
I464
sg460
I465
sg1020
I1030
sg1021
I1031
sg715
I720
sg755
I760
sg942
I949
sg461
I466
sg462
I467
sg463
I468
sg386
I389
sg1023
I1033
sg15
I13
sg1024
I1034
sg1126
I1137
sg465
I470
sg1025
I1036
sS'5'
I1138
sg1026
I1037
sg1027
I1038
sg944
I951
sg410
I414
sg466
I471
sg467
I472
sg468
I473
sg1029
I1040
sg469
I474
sg1030
I1041
sg1031
I1042
sg470
I475
sg471
I476
sg9
I7
sg472
I477
sg473
I478
sg474
I479
sg1032
I1043
sg450
I455
sg1034
I1045
sg476
I481
sg477
I482
sg957
I965
sg1038
I1049
sg479
I484
sg867
I873
sg761
I766
sg1040
I1051
sg982
I990
sg832
I838
sg480
I485
sg977
I985
sg945
I953
sg481
I486
sg1043
I1054
sg737
I742
sg482
I487
sg1045
I1056
sg483
I488
sg1047
I1058
sg484
I489
sg485
I490
sg529
I534
sg486
I491
sg487
I492
sg488
I493
sg489
I494
sg490
I495
sg491
I496
sg492
I497
sg1052
I1063
sg740
I745
sg493
I498
sg6
I4
sg494
I499
sg495
I500
sg496
I501
sg968
I976
sg1055
I1066
sg497
I502
sg646
I651
sg1056
I1067
sg1039
I1050
sg498
I503
sg499
I504
sg954
I962
sg1058
I1069
sg500
I505
sg501
I506
sg1059
I1070
sg1066
I1077
sg502
I507
sg503
I508
sg1060
I1071
sg504
I509
sg505
I510
sg1061
I1072
sg506
I511
sg1143
I1155
sg507
I512
sg508
I513
sg1062
I1073
sg809
I814
sg509
I514
sg1044
I1055
sg1063
I1074
sg510
I515
sg1064
I1075
sg511
I516
sg512
I517
sg643
I648
sg647
I652
sg880
I886
sg1067
I1078
sg513
I518
sg943
I950
sg648
I653
sg661
I666
sg514
I519
sg1071
I1082
sg515
I520
sg1073
I1084
sg516
I521
sg517
I522
sg518
I523
sg618
I623
sg519
I524
sg520
I525
sg521
I526
sg522
I527
sg523
I528
sg524
I529
sg525
I530
sg650
I655
sg526
I531
sg527
I532
sg1077
I1088
sg1078
I1089
sg528
I533
sg1049
I1060
sg1079
I1090
sg1137
I1149
sg530
I535
sg531
I536
sg1037
I1048
sg1081
I1092
sg1082
I1093
sg532
I537
sg1083
I1094
sg534
I539
sg1084
I1095
sg654
I659
sg535
I540
sg1086
I1097
sg806
I811
sg19
I17
sg536
I541
sg1088
I1099
sg537
I542
sg1139
I1151
sg1090
I1101
sg538
I543
sg539
I544
sg797
I802
sg540
I545
sg541
I546
sg1091
I1102
sg542
I547
sg543
I548
sg1092
I1103
sg544
I549
sg545
I550
sg546
I551
sg547
I552
sg869
I875
sg548
I553
sg549
I554
sg887
I893
sg1097
I1108
sV,
I952
sg550
I555
sg551
I556
sg552
I557
sg1099
I1110
sg553
I558
sg554
I559
sg1101
I1112
sg1102
I1113
sg905
I911
sg555
I560
sg556
I561
sg557
I562
sg773
I778
sg1106
I1117
sg1142
I1154
sg1107
I1118
sg1108
I1119
sg558
I563
sg559
I564
sg397
I401
sg616
I621
sg1111
I1122
sg950
I958
sg1110
I1121
sg1113
I1124
sg645
I650
sg1114
I1125
sg46
I44
sg1116
I1127
sg561
I566
sg10
I8
sg562
I567
sg1119
I1130
sg1053
I1064
sg563
I568
sg564
I569
sg1120
I1131
sg565
I570
sg566
I571
sg915
I921
sg995
I1003
sg835
I841
sg776
I781
sg567
I572
sg568
I573
sg777
I782
sg569
I574
sg1046
I1057
sg570
I575
sg571
I576
sg572
I577
sg1125
I1136
sg573
I578
sg574
I579
sg961
I969
sg1002
I1010
sg13
I11
sg575
I580
sg576
I581
sg577
I582
sg836
I842
sg1130
I1142
sg578
I583
sg1131
I1143
sg780
I785
sg949
I957
sg579
I584
sg1132
I1144
sg1133
I1145
sg962
I970
sg580
I585
sg581
I586
sg582
I587
sg1048
I1059
sg1080
I1091
sg583
I588
sg1138
I1150
sg584
I589
sg1089
I1100
sg1140
I1152
sg1141
I1153
sg664
I669
sg585
I590
sg586
I591
sg1057
I1068
sg587
I592
sg588
I593
sg1144
I1156
sg1069
I1080
sg589
I594
sg590
I595
sg1118
I1129
sg964
I972
sg730
I735
sg591
I596
sg1149
I1161
sg1150
I1162
s(lp1152
S'user_affirm'
p1153
aS'user_ack'
p1154
aS'user_finish'
p1155
aS'user_start'
p1156
ag1155
ag1156
aS'user_restart'
p1157
aS'user_report'
p1158
aS'user_dont_want_report'
p1159
a(lp1160
S'user_inform_whenstart_hour'
p1161
aS'user_inform_whenstart_min'
p1162
aS'user_inform_whened_hour'
p1163
aS'user_inform_whened_min'
p1164
aS'user_inform_duration_hour'
p1165
aS'user_inform_duration_min'
p1166
a(lp1167
S'user_inform_what'
p1168
aS'user_inform_day'
p1169
aS'user_inform_where'
p1170
aS'text'
p1171
at.